; generated by ARM C/C++ Compiler, 4.1 [Build 481]
; commandline ArmCC [--split_sections --debug -c --asm --interleave -o.\obj\sample_http.o --depend=.\obj\sample_http.d --feedback=.\obj\wifi.fed --cpu=Cortex-M3 --apcs=interwork -O0 -I..\lwIP\src\include -I..\lwIP\port\include -I..\lwIP\src\include\ipv4 -I..\target -I..\netapp -I..\marvel\driver\inc -I..\marvel\wpa\inc -I..\sdio\inc -I..\main -ID:\keilarm\ARM\INC -ID:\keilarm\ARM\INC\ST\STM32F10x -D__MICROLIB -DIEEE8021X_EAPOL -DOS_NO_C_LIB_DEFINES -DCONFIG_PEERKEY -DCONFIG_IEEE80211W -DCONFIG_IEEE80211R -DxCLOSE_WPA_LIMIT --omf_browse=.\obj\sample_http.crf ..\netapp\sample_http.c]
                          THUMB

                          AREA ||i.close_conn||, CODE, READONLY, ALIGN=1

                  close_conn PROC
;;;184    static void
;;;185            close_conn(struct tcp_pcb *pcb, struct http_state *hs)
000000  b570              PUSH     {r4-r6,lr}
;;;186    {
000002  4605              MOV      r5,r0
000004  460c              MOV      r4,r1
;;;187        tcp_arg(pcb, NULL);
000006  2100              MOVS     r1,#0
000008  4628              MOV      r0,r5
00000a  f7fffffe          BL       tcp_arg
;;;188        tcp_sent(pcb, NULL);
00000e  2100              MOVS     r1,#0
000010  4628              MOV      r0,r5
000012  f7fffffe          BL       tcp_sent
;;;189        tcp_recv(pcb, NULL);
000016  2100              MOVS     r1,#0
000018  4628              MOV      r0,r5
00001a  f7fffffe          BL       tcp_recv
;;;190        mem_free(hs);
00001e  4620              MOV      r0,r4
000020  f7fffffe          BL       mem_free
;;;191        tcp_close(pcb);
000024  4628              MOV      r0,r5
000026  f7fffffe          BL       tcp_close
;;;192    }
00002a  bd70              POP      {r4-r6,pc}
;;;193    /*-----------------------------------------------------------------------------------*/
                          ENDP


                          AREA ||i.conn_err||, CODE, READONLY, ALIGN=1

                  conn_err PROC
;;;175    static void
;;;176            conn_err(void *arg, err_t err)
000000  b570              PUSH     {r4-r6,lr}
;;;177    {
000002  4604              MOV      r4,r0
000004  460e              MOV      r6,r1
;;;178        struct http_state *hs;
;;;179    
;;;180        hs = arg;
000006  4625              MOV      r5,r4
;;;181        mem_free(hs);
000008  4628              MOV      r0,r5
00000a  f7fffffe          BL       mem_free
;;;182    }
00000e  bd70              POP      {r4-r6,pc}
;;;183    /*-----------------------------------------------------------------------------------*/
                          ENDP


                          AREA ||i.hex_trans||, CODE, READONLY, ALIGN=2

                  hex_trans PROC
;;;32     
;;;33     static void hex_trans(char *frm,char *dst)
000000  b570              PUSH     {r4-r6,lr}
;;;34     {
000002  4606              MOV      r6,r0
000004  460c              MOV      r4,r1
;;;35         int iii;
;;;36         if(!memcmp(frm,"%3d",3)){
000006  2203              MOVS     r2,#3
000008  a117              ADR      r1,|L3.104|
00000a  4630              MOV      r0,r6
00000c  f7fffffe          BL       memcmp
000010  b960              CBNZ     r0,|L3.44|
;;;37             iii=3;
000012  2503              MOVS     r5,#3
;;;38             while(iii--){
000014  e005              B        |L3.34|
                  |L3.22|
;;;39                 if(*dst==' ')
000016  7820              LDRB     r0,[r4,#0]
000018  2820              CMP      r0,#0x20
00001a  d102              BNE      |L3.34|
;;;40                     *dst++='0';
00001c  2030              MOVS     r0,#0x30
00001e  f8040b01          STRB     r0,[r4],#1
                  |L3.34|
000022  0028              MOVS     r0,r5                 ;38
000024  f1a50501          SUB      r5,r5,#1              ;38
000028  d1f5              BNE      |L3.22|
00002a  e01b              B        |L3.100|
                  |L3.44|
;;;41             }
;;;42         }
;;;43         else if(!memcmp(frm,"%2x",3)){
00002c  2203              MOVS     r2,#3
00002e  a10f              ADR      r1,|L3.108|
000030  4630              MOV      r0,r6
000032  f7fffffe          BL       memcmp
000036  b9a8              CBNZ     r0,|L3.100|
;;;44             iii=2;
000038  2502              MOVS     r5,#2
;;;45             while(iii--){
00003a  e00f              B        |L3.92|
                  |L3.60|
;;;46                 if((*dst>'a'-1)&&(*dst<'g'))
00003c  7820              LDRB     r0,[r4,#0]
00003e  2860              CMP      r0,#0x60
000040  dd06              BLE      |L3.80|
000042  7820              LDRB     r0,[r4,#0]
000044  2867              CMP      r0,#0x67
000046  da03              BGE      |L3.80|
;;;47                     *dst-='a'-'A';
000048  7820              LDRB     r0,[r4,#0]
00004a  3820              SUBS     r0,r0,#0x20
00004c  7020              STRB     r0,[r4,#0]
00004e  e004              B        |L3.90|
                  |L3.80|
;;;48                 else if(*dst==' ')
000050  7820              LDRB     r0,[r4,#0]
000052  2820              CMP      r0,#0x20
000054  d101              BNE      |L3.90|
;;;49                     *dst='0';
000056  2030              MOVS     r0,#0x30
000058  7020              STRB     r0,[r4,#0]
                  |L3.90|
;;;50                 *dst++;
00005a  1c64              ADDS     r4,r4,#1
                  |L3.92|
00005c  0028              MOVS     r0,r5                 ;45
00005e  f1a50501          SUB      r5,r5,#1              ;45
000062  d1eb              BNE      |L3.60|
                  |L3.100|
;;;51             }
;;;52         }
;;;53     }
000064  bd70              POP      {r4-r6,pc}
;;;54     
                          ENDP

000066  0000              DCW      0x0000
                  |L3.104|
000068  25336400          DCB      "%3d",0
                  |L3.108|
00006c  25327800          DCB      "%2x",0

                          AREA ||i.html_cgi||, CODE, READONLY, ALIGN=2

                          REQUIRE _printf_percent
                          REQUIRE _printf_s
                          REQUIRE _printf_str
                          REQUIRE _printf_str
                          REQUIRE _printf_str
                          REQUIRE _printf_str
                          REQUIRE _printf_str
                          REQUIRE _printf_str
                          REQUIRE _printf_pre_padding
                          REQUIRE _printf_widthprec
                          REQUIRE _printf_d
                          REQUIRE _printf_int_dec
                          REQUIRE _printf_x
                          REQUIRE _printf_longlong_hex
                  html_cgi PROC
;;;56     
;;;57     static void html_cgi(unsigned char *html,unsigned char *buffer,struct http_state *hs)
000000  e92d41f0          PUSH     {r4-r8,lr}
;;;58     { 
000004  b088              SUB      sp,sp,#0x20
000006  4607              MOV      r7,r0
000008  460c              MOV      r4,r1
00000a  4615              MOV      r5,r2
;;;59         int index=hs->index++;
00000c  892e              LDRH     r6,[r5,#8]
00000e  1c70              ADDS     r0,r6,#1
000010  8128              STRH     r0,[r5,#8]
;;;60         int len=hs->left<512?hs->left:512;
000012  88a8              LDRH     r0,[r5,#4]
000014  f5b07f00          CMP      r0,#0x200
000018  da01              BGE      |L4.30|
00001a  88a8              LDRH     r0,[r5,#4]
00001c  e001              B        |L4.34|
                  |L4.30|
00001e  f44f7000          MOV      r0,#0x200
                  |L4.34|
000022  4680              MOV      r8,r0
;;;61         char tmp[32];
;;;62         hs->len=len;
000024  f8a58006          STRH     r8,[r5,#6]
;;;63         memcpy(buffer,html+512*index,len);
000028  f44f7000          MOV      r0,#0x200
00002c  fb007106          MLA      r1,r0,r6,r7
000030  4642              MOV      r2,r8
000032  4620              MOV      r0,r4
000034  f7fffffe          BL       __aeabi_memcpy
;;;64         if(index==0){
000038  bbf6              CBNZ     r6,|L4.184|
;;;65     	//net mode
;;;66             if(marvel_mode=='1'){
00003a  48fe              LDR      r0,|L4.1076|
00003c  7800              LDRB     r0,[r0,#0]  ; marvel_mode
00003e  2831              CMP      r0,#0x31
000040  d123              BNE      |L4.138|
;;;67                 snprintf(buffer+INFRA_INDEX,8,"%s",
000042  bf00              NOP      
000044  a2fc              ADR      r2,|L4.1080|
000046  a1ff              ADR      r1,|L4.1092|
000048  4668              MOV      r0,sp
00004a  f7fffffe          BL       __2sprintf
00004e  9900              LDR      r1,[sp,#0]
000050  f8c411bf          STR      r1,[r4,#0x1bf]
000054  9901              LDR      r1,[sp,#4]
000056  f8c411c3          STR      r1,[r4,#0x1c3]
00005a  f20411bf          ADD      r1,r4,#0x1bf
00005e  a0f9              ADR      r0,|L4.1092|
000060  f7fffffe          BL       hex_trans
000064  bf00              NOP      
;;;68                          "        ");
;;;69                 snprintf(buffer+ADHOC_INDEX,8,"%s",
000066  bf00              NOP      
000068  a2f7              ADR      r2,|L4.1096|
00006a  a1f6              ADR      r1,|L4.1092|
00006c  4668              MOV      r0,sp
00006e  f7fffffe          BL       __2sprintf
000072  9900              LDR      r1,[sp,#0]
000074  f8c411f0          STR      r1,[r4,#0x1f0]
000078  9901              LDR      r1,[sp,#4]
00007a  f8c411f4          STR      r1,[r4,#0x1f4]
00007e  f50471f8          ADD      r1,r4,#0x1f0
000082  a0f0              ADR      r0,|L4.1092|
000084  f7fffffe          BL       hex_trans
000088  e24a              B        |L4.1312|
                  |L4.138|
;;;70                          "selected");
;;;71             }
;;;72             else if(marvel_mode=='0'){
00008a  48ea              LDR      r0,|L4.1076|
00008c  7800              LDRB     r0,[r0,#0]  ; marvel_mode
00008e  2830              CMP      r0,#0x30
000090  d124              BNE      |L4.220|
;;;73                 snprintf(buffer+INFRA_INDEX,8,"%s",
000092  bf00              NOP      
000094  a2ec              ADR      r2,|L4.1096|
000096  a1eb              ADR      r1,|L4.1092|
000098  4668              MOV      r0,sp
00009a  f7fffffe          BL       __2sprintf
00009e  9900              LDR      r1,[sp,#0]
0000a0  f8c411bf          STR      r1,[r4,#0x1bf]
0000a4  9901              LDR      r1,[sp,#4]
0000a6  f8c411c3          STR      r1,[r4,#0x1c3]
0000aa  f20411bf          ADD      r1,r4,#0x1bf
0000ae  a0e5              ADR      r0,|L4.1092|
0000b0  f7fffffe          BL       hex_trans
0000b4  bf00              NOP      
;;;74                          "selected");
;;;75                 snprintf(buffer+ADHOC_INDEX,8,"%s",
0000b6  e000              B        |L4.186|
                  |L4.184|
0000b8  e011              B        |L4.222|
                  |L4.186|
0000ba  bf00              NOP      
0000bc  a2de              ADR      r2,|L4.1080|
0000be  a1e1              ADR      r1,|L4.1092|
0000c0  4668              MOV      r0,sp
0000c2  f7fffffe          BL       __2sprintf
0000c6  9900              LDR      r1,[sp,#0]
0000c8  f8c411f0          STR      r1,[r4,#0x1f0]
0000cc  9901              LDR      r1,[sp,#4]
0000ce  f8c411f4          STR      r1,[r4,#0x1f4]
0000d2  f50471f8          ADD      r1,r4,#0x1f0
0000d6  a0db              ADR      r0,|L4.1092|
0000d8  f7fffffe          BL       hex_trans
                  |L4.220|
0000dc  e220              B        |L4.1312|
                  |L4.222|
;;;76                          "        ");
;;;77             }
;;;78         }
;;;79         else if(index==1){
0000de  2e01              CMP      r6,#1
0000e0  d141              BNE      |L4.358|
;;;80     
;;;81             /*if(marvel_mode=='1')
;;;82     			*buffer='d';
;;;83     		else
;;;84     			*buffer=' ';*/
;;;85     
;;;86             //ssid
;;;87             memset(buffer+SSID_INDEX-512,0,64);
0000e2  f104005c          ADD      r0,r4,#0x5c
0000e6  2140              MOVS     r1,#0x40
0000e8  f7fffffe          BL       __aeabi_memclr
;;;88             sprintf((char *)buffer+SSID_INDEX-512,"\"%s\"",marvel_ssid);
0000ec  f104005c          ADD      r0,r4,#0x5c
0000f0  4ad8              LDR      r2,|L4.1108|
0000f2  a1d9              ADR      r1,|L4.1112|
0000f4  f7fffffe          BL       __2sprintf
;;;89             //key
;;;90             memset(buffer+KEY_INDEX-512,0,61);
0000f8  f10400e7          ADD      r0,r4,#0xe7
0000fc  213d              MOVS     r1,#0x3d
0000fe  f7fffffe          BL       __aeabi_memclr
;;;91             sprintf((char *)buffer+KEY_INDEX-512,"\"%s\"",marvel_key);
000102  f10400e7          ADD      r0,r4,#0xe7
000106  4ad6              LDR      r2,|L4.1120|
000108  a1d3              ADR      r1,|L4.1112|
00010a  f7fffffe          BL       __2sprintf
;;;92             //ip1
;;;93             snprintf(buffer+WIP1_INDEX-512,3,"%3d",wireless_ip[0]);
00010e  bf00              NOP      
000110  48d4              LDR      r0,|L4.1124|
000112  7802              LDRB     r2,[r0,#0]  ; wireless_ip
000114  a1d4              ADR      r1,|L4.1128|
000116  4668              MOV      r0,sp
000118  f7fffffe          BL       __2sprintf
00011c  f44f70d4          MOV      r0,#0x1a8
000120  f8bd1000          LDRH     r1,[sp,#0]
000124  f8a411a6          STRH     r1,[r4,#0x1a6]
000128  f89d1002          LDRB     r1,[sp,#2]
00012c  5501              STRB     r1,[r0,r4]
00012e  f50471d3          ADD      r1,r4,#0x1a6
000132  a0cd              ADR      r0,|L4.1128|
000134  f7fffffe          BL       hex_trans
000138  bf00              NOP      
;;;94             //ip2
;;;95             snprintf(buffer+WIP2_INDEX-512,3,"%3d",wireless_ip[1]);
00013a  bf00              NOP      
00013c  48c9              LDR      r0,|L4.1124|
00013e  7842              LDRB     r2,[r0,#1]  ; wireless_ip
000140  a1c9              ADR      r1,|L4.1128|
000142  4668              MOV      r0,sp
000144  f7fffffe          BL       __2sprintf
000148  f24010f3          MOV      r0,#0x1f3
00014c  f8bd1000          LDRH     r1,[sp,#0]
000150  f8a411f1          STRH     r1,[r4,#0x1f1]
000154  f89d1002          LDRB     r1,[sp,#2]
000158  5501              STRB     r1,[r0,r4]
00015a  f20411f1          ADD      r1,r4,#0x1f1
00015e  a0c2              ADR      r0,|L4.1128|
000160  f7fffffe          BL       hex_trans
000164  e1dc              B        |L4.1312|
                  |L4.358|
;;;96     
;;;97         }
;;;98         else if(index==2){
000166  2e02              CMP      r6,#2
000168  d17e              BNE      |L4.616|
;;;99             //ip3
;;;100            snprintf(buffer+WIP3_INDEX-1024,3,"%3d",wireless_ip[2]);
00016a  bf00              NOP      
00016c  48bd              LDR      r0,|L4.1124|
00016e  7882              LDRB     r2,[r0,#2]  ; wireless_ip
000170  a1bd              ADR      r1,|L4.1128|
000172  4668              MOV      r0,sp
000174  f7fffffe          BL       __2sprintf
000178  203d              MOVS     r0,#0x3d
00017a  f8bd1000          LDRH     r1,[sp,#0]
00017e  f8a4103b          STRH     r1,[r4,#0x3b]
000182  f89d1002          LDRB     r1,[sp,#2]
000186  5501              STRB     r1,[r0,r4]
000188  f104013b          ADD      r1,r4,#0x3b
00018c  a0b6              ADR      r0,|L4.1128|
00018e  f7fffffe          BL       hex_trans
000192  bf00              NOP      
;;;101            snprintf(buffer+WIP4_INDEX-1024,3,"%3d",wireless_ip[3]);
000194  bf00              NOP      
000196  48b3              LDR      r0,|L4.1124|
000198  78c2              LDRB     r2,[r0,#3]  ; wireless_ip
00019a  a1b3              ADR      r1,|L4.1128|
00019c  4668              MOV      r0,sp
00019e  f7fffffe          BL       __2sprintf
0001a2  2087              MOVS     r0,#0x87
0001a4  f8bd1000          LDRH     r1,[sp,#0]
0001a8  f8a41085          STRH     r1,[r4,#0x85]
0001ac  f89d1002          LDRB     r1,[sp,#2]
0001b0  5501              STRB     r1,[r0,r4]
0001b2  f1040185          ADD      r1,r4,#0x85
0001b6  a0ac              ADR      r0,|L4.1128|
0001b8  f7fffffe          BL       hex_trans
0001bc  bf00              NOP      
;;;102    
;;;103            //mask
;;;104            snprintf(buffer+MASK1_INDEX-1024,3,"%3d",wireless_mask[0]);
0001be  bf00              NOP      
0001c0  48aa              LDR      r0,|L4.1132|
0001c2  7802              LDRB     r2,[r0,#0]  ; wireless_mask
0001c4  a1a8              ADR      r1,|L4.1128|
0001c6  4668              MOV      r0,sp
0001c8  f7fffffe          BL       __2sprintf
0001cc  20f5              MOVS     r0,#0xf5
0001ce  f8bd1000          LDRH     r1,[sp,#0]
0001d2  f8a410f3          STRH     r1,[r4,#0xf3]
0001d6  f89d1002          LDRB     r1,[sp,#2]
0001da  5501              STRB     r1,[r0,r4]
0001dc  f10401f3          ADD      r1,r4,#0xf3
0001e0  a0a1              ADR      r0,|L4.1128|
0001e2  f7fffffe          BL       hex_trans
0001e6  bf00              NOP      
;;;105            snprintf(buffer+MASK2_INDEX-1024,3,"%3d",wireless_mask[1]);
0001e8  bf00              NOP      
0001ea  48a0              LDR      r0,|L4.1132|
0001ec  7842              LDRB     r2,[r0,#1]  ; wireless_mask
0001ee  a19e              ADR      r1,|L4.1128|
0001f0  4668              MOV      r0,sp
0001f2  f7fffffe          BL       __2sprintf
0001f6  f44f70a0          MOV      r0,#0x140
0001fa  f8bd1000          LDRH     r1,[sp,#0]
0001fe  f8a4113e          STRH     r1,[r4,#0x13e]
000202  f89d1002          LDRB     r1,[sp,#2]
000206  5501              STRB     r1,[r0,r4]
000208  f504719f          ADD      r1,r4,#0x13e
00020c  a096              ADR      r0,|L4.1128|
00020e  f7fffffe          BL       hex_trans
000212  bf00              NOP      
;;;106            snprintf(buffer+MASK3_INDEX-1024,3,"%3d",wireless_mask[2]);
000214  bf00              NOP      
000216  4895              LDR      r0,|L4.1132|
000218  7882              LDRB     r2,[r0,#2]  ; wireless_mask
00021a  a193              ADR      r1,|L4.1128|
00021c  4668              MOV      r0,sp
00021e  f7fffffe          BL       __2sprintf
000222  f240108b          MOV      r0,#0x18b
000226  f8bd1000          LDRH     r1,[sp,#0]
00022a  f8a41189          STRH     r1,[r4,#0x189]
00022e  f89d1002          LDRB     r1,[sp,#2]
000232  5501              STRB     r1,[r0,r4]
000234  f2041189          ADD      r1,r4,#0x189
000238  a08b              ADR      r0,|L4.1128|
00023a  f7fffffe          BL       hex_trans
00023e  bf00              NOP      
;;;107            snprintf(buffer+MASK4_INDEX-1024,3,"%3d",wireless_mask[3]);
000240  bf00              NOP      
000242  488a              LDR      r0,|L4.1132|
000244  78c2              LDRB     r2,[r0,#3]  ; wireless_mask
000246  a188              ADR      r1,|L4.1128|
000248  4668              MOV      r0,sp
00024a  f7fffffe          BL       __2sprintf
00024e  f44f70eb          MOV      r0,#0x1d6
000252  f8bd1000          LDRH     r1,[sp,#0]
000256  f8a411d4          STRH     r1,[r4,#0x1d4]
00025a  f89d1002          LDRB     r1,[sp,#2]
00025e  5501              STRB     r1,[r0,r4]
000260  f50471ea          ADD      r1,r4,#0x1d4
000264  a080              ADR      r0,|L4.1128|
000266  e000              B        |L4.618|
                  |L4.616|
000268  e002              B        |L4.624|
                  |L4.618|
00026a  f7fffffe          BL       hex_trans
00026e  e157              B        |L4.1312|
                  |L4.624|
;;;108    
;;;109    
;;;110    
;;;111        }
;;;112        else if(index==3){
000270  2e03              CMP      r6,#3
000272  d17e              BNE      |L4.882|
;;;113    
;;;114            //gataway
;;;115            snprintf(buffer+GATAWAY1_INDEX-1536,3,"%3d",wireless_gw[0]);
000274  bf00              NOP      
000276  487e              LDR      r0,|L4.1136|
000278  7802              LDRB     r2,[r0,#0]  ; wireless_gw
00027a  a17b              ADR      r1,|L4.1128|
00027c  4668              MOV      r0,sp
00027e  f7fffffe          BL       __2sprintf
000282  2039              MOVS     r0,#0x39
000284  f8bd1000          LDRH     r1,[sp,#0]
000288  f8a41037          STRH     r1,[r4,#0x37]
00028c  f89d1002          LDRB     r1,[sp,#2]
000290  5501              STRB     r1,[r0,r4]
000292  f1040137          ADD      r1,r4,#0x37
000296  a074              ADR      r0,|L4.1128|
000298  f7fffffe          BL       hex_trans
00029c  bf00              NOP      
;;;116            snprintf(buffer+GATAWAY2_INDEX-1536,3,"%3d",wireless_gw[1]);
00029e  bf00              NOP      
0002a0  4873              LDR      r0,|L4.1136|
0002a2  7842              LDRB     r2,[r0,#1]  ; wireless_gw
0002a4  a170              ADR      r1,|L4.1128|
0002a6  4668              MOV      r0,sp
0002a8  f7fffffe          BL       __2sprintf
0002ac  2082              MOVS     r0,#0x82
0002ae  f8bd1000          LDRH     r1,[sp,#0]
0002b2  f8a41080          STRH     r1,[r4,#0x80]
0002b6  f89d1002          LDRB     r1,[sp,#2]
0002ba  5501              STRB     r1,[r0,r4]
0002bc  f1040180          ADD      r1,r4,#0x80
0002c0  a069              ADR      r0,|L4.1128|
0002c2  f7fffffe          BL       hex_trans
0002c6  bf00              NOP      
;;;117            snprintf(buffer+GATAWAY3_INDEX-1536,3,"%3d",wireless_gw[2]);
0002c8  bf00              NOP      
0002ca  4869              LDR      r0,|L4.1136|
0002cc  7882              LDRB     r2,[r0,#2]  ; wireless_gw
0002ce  a166              ADR      r1,|L4.1128|
0002d0  4668              MOV      r0,sp
0002d2  f7fffffe          BL       __2sprintf
0002d6  20cb              MOVS     r0,#0xcb
0002d8  f8bd1000          LDRH     r1,[sp,#0]
0002dc  f8a410c9          STRH     r1,[r4,#0xc9]
0002e0  f89d1002          LDRB     r1,[sp,#2]
0002e4  5501              STRB     r1,[r0,r4]
0002e6  f10401c9          ADD      r1,r4,#0xc9
0002ea  a05f              ADR      r0,|L4.1128|
0002ec  f7fffffe          BL       hex_trans
0002f0  bf00              NOP      
;;;118            snprintf(buffer+GATAWAY4_INDEX-1536,3,"%3d",wireless_gw[3]);
0002f2  bf00              NOP      
0002f4  485e              LDR      r0,|L4.1136|
0002f6  78c2              LDRB     r2,[r0,#3]  ; wireless_gw
0002f8  a15b              ADR      r1,|L4.1128|
0002fa  4668              MOV      r0,sp
0002fc  f7fffffe          BL       __2sprintf
000300  f44f708a          MOV      r0,#0x114
000304  f8bd1000          LDRH     r1,[sp,#0]
000308  f8a41112          STRH     r1,[r4,#0x112]
00030c  f89d1002          LDRB     r1,[sp,#2]
000310  5501              STRB     r1,[r0,r4]
000312  f5047189          ADD      r1,r4,#0x112
000316  a054              ADR      r0,|L4.1128|
000318  f7fffffe          BL       hex_trans
00031c  bf00              NOP      
;;;119    
;;;120            snprintf(buffer+DNS1_INDEX-1536,3,"%3d",wireless_dns[0]);
00031e  bf00              NOP      
000320  4854              LDR      r0,|L4.1140|
000322  7802              LDRB     r2,[r0,#0]  ; wireless_dns
000324  a150              ADR      r1,|L4.1128|
000326  4668              MOV      r0,sp
000328  f7fffffe          BL       __2sprintf
00032c  f44f70bc          MOV      r0,#0x178
000330  f8bd1000          LDRH     r1,[sp,#0]
000334  f8a41176          STRH     r1,[r4,#0x176]
000338  f89d1002          LDRB     r1,[sp,#2]
00033c  5501              STRB     r1,[r0,r4]
00033e  f50471bb          ADD      r1,r4,#0x176
000342  a049              ADR      r0,|L4.1128|
000344  f7fffffe          BL       hex_trans
000348  bf00              NOP      
;;;121            snprintf(buffer+DNS2_INDEX-1536,3,"%3d",wireless_dns[1]);
00034a  bf00              NOP      
00034c  4849              LDR      r0,|L4.1140|
00034e  7842              LDRB     r2,[r0,#1]  ; wireless_dns
000350  a145              ADR      r1,|L4.1128|
000352  4668              MOV      r0,sp
000354  f7fffffe          BL       __2sprintf
000358  f44f70e1          MOV      r0,#0x1c2
00035c  f8bd1000          LDRH     r1,[sp,#0]
000360  f8a411c0          STRH     r1,[r4,#0x1c0]
000364  f89d1002          LDRB     r1,[sp,#2]
000368  5501              STRB     r1,[r0,r4]
00036a  f50471e0          ADD      r1,r4,#0x1c0
00036e  a03e              ADR      r0,|L4.1128|
000370  e000              B        |L4.884|
                  |L4.882|
000372  e002              B        |L4.890|
                  |L4.884|
000374  f7fffffe          BL       hex_trans
000378  e0d2              B        |L4.1312|
                  |L4.890|
;;;122    
;;;123        }
;;;124        else if(index==4){
00037a  2e04              CMP      r6,#4
00037c  d159              BNE      |L4.1074|
;;;125            memcpy(wireless_mac,pgmarvel_priv->current_addr,6);//updata mac
00037e  493e              LDR      r1,|L4.1144|
000380  483e              LDR      r0,|L4.1148|
000382  6800              LDR      r0,[r0,#0]  ; pgmarvel_priv
000384  f5007080          ADD      r0,r0,#0x100
000388  f8d0200a          LDR      r2,[r0,#0xa]
00038c  600a              STR      r2,[r1,#0]  ; wireless_mac
00038e  89c0              LDRH     r0,[r0,#0xe]
000390  8088              STRH     r0,[r1,#4]
;;;126            snprintf(buffer+DNS3_INDEX-2048,3,"%3d",wireless_dns[2]);
000392  bf00              NOP      
000394  4837              LDR      r0,|L4.1140|
000396  7882              LDRB     r2,[r0,#2]  ; wireless_dns
000398  a133              ADR      r1,|L4.1128|
00039a  4668              MOV      r0,sp
00039c  f7fffffe          BL       __2sprintf
0003a0  f8bd1000          LDRH     r1,[sp,#0]
0003a4  8161              STRH     r1,[r4,#0xa]
0003a6  f89d1002          LDRB     r1,[sp,#2]
0003aa  7321              STRB     r1,[r4,#0xc]
0003ac  f104010a          ADD      r1,r4,#0xa
0003b0  a02d              ADR      r0,|L4.1128|
0003b2  f7fffffe          BL       hex_trans
0003b6  bf00              NOP      
;;;127            snprintf(buffer+DNS4_INDEX-2048,3,"%3d",wireless_dns[3]);
0003b8  bf00              NOP      
0003ba  482e              LDR      r0,|L4.1140|
0003bc  78c2              LDRB     r2,[r0,#3]  ; wireless_dns
0003be  a12a              ADR      r1,|L4.1128|
0003c0  4668              MOV      r0,sp
0003c2  f7fffffe          BL       __2sprintf
0003c6  2056              MOVS     r0,#0x56
0003c8  f8bd1000          LDRH     r1,[sp,#0]
0003cc  f8a41054          STRH     r1,[r4,#0x54]
0003d0  f89d1002          LDRB     r1,[sp,#2]
0003d4  5501              STRB     r1,[r0,r4]
0003d6  f1040154          ADD      r1,r4,#0x54
0003da  a023              ADR      r0,|L4.1128|
0003dc  f7fffffe          BL       hex_trans
0003e0  bf00              NOP      
;;;128            //mac
;;;129            snprintf(buffer+WMAC0_INDEX-2048,2,"%2x",wireless_mac[0]);
0003e2  bf00              NOP      
0003e4  4824              LDR      r0,|L4.1144|
0003e6  7802              LDRB     r2,[r0,#0]  ; wireless_mac
0003e8  a125              ADR      r1,|L4.1152|
0003ea  4668              MOV      r0,sp
0003ec  f7fffffe          BL       __2sprintf
0003f0  f10400c4          ADD      r0,r4,#0xc4
0003f4  f8bd1000          LDRH     r1,[sp,#0]
0003f8  f8a410c4          STRH     r1,[r4,#0xc4]
0003fc  4601              MOV      r1,r0
0003fe  a020              ADR      r0,|L4.1152|
000400  f7fffffe          BL       hex_trans
000404  bf00              NOP      
;;;130            snprintf(buffer+WMAC1_INDEX-2048,2,"%2x",wireless_mac[1]);
000406  bf00              NOP      
000408  481b              LDR      r0,|L4.1144|
00040a  7842              LDRB     r2,[r0,#1]  ; wireless_mac
00040c  a11c              ADR      r1,|L4.1152|
00040e  4668              MOV      r0,sp
000410  f7fffffe          BL       __2sprintf
000414  f5047087          ADD      r0,r4,#0x10e
000418  f8bd1000          LDRH     r1,[sp,#0]
00041c  f8a4110e          STRH     r1,[r4,#0x10e]
000420  4601              MOV      r1,r0
000422  a017              ADR      r0,|L4.1152|
000424  f7fffffe          BL       hex_trans
000428  bf00              NOP      
;;;131            snprintf(buffer+WMAC2_INDEX-2048,2,"%2x",wireless_mac[2]);
00042a  bf00              NOP      
00042c  4812              LDR      r0,|L4.1144|
00042e  7882              LDRB     r2,[r0,#2]  ; wireless_mac
000430  e028              B        |L4.1156|
                  |L4.1074|
000432  e060              B        |L4.1270|
                  |L4.1076|
                          DCD      marvel_mode
                  |L4.1080|
000438  20202020          DCB      "        ",0
00043c  20202020
000440  00      
000441  00                DCB      0
000442  00                DCB      0
000443  00                DCB      0
                  |L4.1092|
000444  257300            DCB      "%s",0
000447  00                DCB      0
                  |L4.1096|
000448  73656c65          DCB      "selected",0
00044c  63746564
000450  00      
000451  00                DCB      0
000452  00                DCB      0
000453  00                DCB      0
                  |L4.1108|
                          DCD      marvel_ssid
                  |L4.1112|
000458  22257322          DCB      """%s""",0
00045c  00      
00045d  00                DCB      0
00045e  00                DCB      0
00045f  00                DCB      0
                  |L4.1120|
                          DCD      marvel_key
                  |L4.1124|
                          DCD      wireless_ip
                  |L4.1128|
000468  25336400          DCB      "%3d",0
                  |L4.1132|
                          DCD      wireless_mask
                  |L4.1136|
                          DCD      wireless_gw
                  |L4.1140|
                          DCD      wireless_dns
                  |L4.1144|
                          DCD      wireless_mac
                  |L4.1148|
                          DCD      pgmarvel_priv
                  |L4.1152|
000480  25327800          DCB      "%2x",0
                  |L4.1156|
000484  f2af0108          ADR      r1,|L4.1152|
000488  4668              MOV      r0,sp
00048a  f7fffffe          BL       __2sprintf
00048e  f50470ac          ADD      r0,r4,#0x158
000492  f8bd1000          LDRH     r1,[sp,#0]
000496  f8a41158          STRH     r1,[r4,#0x158]
00049a  4601              MOV      r1,r0
00049c  f2af0020          ADR      r0,|L4.1152|
0004a0  f7fffffe          BL       hex_trans
0004a4  bf00              NOP      
;;;132            snprintf(buffer+WMAC3_INDEX-2048,2,"%2x",wireless_mac[3]);
0004a6  bf00              NOP      
0004a8  481f              LDR      r0,|L4.1320|
0004aa  78c2              LDRB     r2,[r0,#3]  ; wireless_mac
0004ac  f2af0130          ADR      r1,|L4.1152|
0004b0  4668              MOV      r0,sp
0004b2  f7fffffe          BL       __2sprintf
0004b6  f50470d1          ADD      r0,r4,#0x1a2
0004ba  f8bd1000          LDRH     r1,[sp,#0]
0004be  f8a411a2          STRH     r1,[r4,#0x1a2]
0004c2  4601              MOV      r1,r0
0004c4  f2af0048          ADR      r0,|L4.1152|
0004c8  f7fffffe          BL       hex_trans
0004cc  bf00              NOP      
;;;133            snprintf(buffer+WMAC4_INDEX-2048,2,"%2x",wireless_mac[4]);
0004ce  bf00              NOP      
0004d0  4815              LDR      r0,|L4.1320|
0004d2  7902              LDRB     r2,[r0,#4]  ; wireless_mac
0004d4  f2af0158          ADR      r1,|L4.1152|
0004d8  4668              MOV      r0,sp
0004da  f7fffffe          BL       __2sprintf
0004de  f50470f6          ADD      r0,r4,#0x1ec
0004e2  f8bd1000          LDRH     r1,[sp,#0]
0004e6  f8a411ec          STRH     r1,[r4,#0x1ec]
0004ea  4601              MOV      r1,r0
0004ec  f2af0070          ADR      r0,|L4.1152|
0004f0  f7fffffe          BL       hex_trans
0004f4  e014              B        |L4.1312|
                  |L4.1270|
;;;134    
;;;135        }
;;;136        else if(index==5){
0004f6  2e05              CMP      r6,#5
0004f8  d112              BNE      |L4.1312|
;;;137            snprintf(buffer+WMAC5_INDEX-2560,2,"%2x",wireless_mac[5]);
0004fa  bf00              NOP      
0004fc  480a              LDR      r0,|L4.1320|
0004fe  7942              LDRB     r2,[r0,#5]  ; wireless_mac
000500  f2af0184          ADR      r1,|L4.1152|
000504  4668              MOV      r0,sp
000506  f7fffffe          BL       __2sprintf
00050a  f1040036          ADD      r0,r4,#0x36
00050e  f8bd1000          LDRH     r1,[sp,#0]
000512  86e1              STRH     r1,[r4,#0x36]
000514  4601              MOV      r1,r0
000516  f2af0098          ADR      r0,|L4.1152|
00051a  f7fffffe          BL       hex_trans
00051e  bf00              NOP      
                  |L4.1312|
;;;138    
;;;139        }
;;;140    }
000520  b008              ADD      sp,sp,#0x20
000522  e8bd81f0          POP      {r4-r8,pc}
;;;141    
                          ENDP

000526  0000              DCW      0x0000
                  |L4.1320|
                          DCD      wireless_mac

                          AREA ||i.http_accept||, CODE, READONLY, ALIGN=2

                  http_accept PROC
;;;445    static err_t
;;;446            http_accept(void *arg, struct tcp_pcb *pcb, err_t err)
000000  e92d41f0          PUSH     {r4-r8,lr}
;;;447    {
000004  4606              MOV      r6,r0
000006  460d              MOV      r5,r1
000008  4617              MOV      r7,r2
;;;448        struct http_state *hs;
;;;449        /* Allocate memory for the structure that holds the state of the
;;;450         connection. */
;;;451        hs = mem_malloc(sizeof(struct http_state));
00000a  200c              MOVS     r0,#0xc
00000c  f7fffffe          BL       mem_malloc
000010  4604              MOV      r4,r0
;;;452    
;;;453        if(hs == NULL) {
000012  b91c              CBNZ     r4,|L5.28|
;;;454            return ERR_MEM;
000014  f04f30ff          MOV      r0,#0xffffffff
                  |L5.24|
;;;455        }
;;;456    
;;;457        /* Initialize the structure. */
;;;458        hs->file = NULL;
;;;459        hs->left = 0;
;;;460        hs->retries = 0;
;;;461        hs->cfg=0;
;;;462        /* Tell TCP that this is the structure we wish to be passed for our
;;;463         callbacks. */
;;;464        tcp_arg(pcb, hs);
;;;465    
;;;466        /* Tell TCP that we wish to be informed of incoming data by a call
;;;467         to the http_recv() function. */
;;;468        tcp_recv(pcb, http_recv);
;;;469        tcp_err(pcb, conn_err);
;;;470    
;;;471        //tcp_poll(pcb, http_poll, 20);
;;;472        return ERR_OK;
;;;473    }
000018  e8bd81f0          POP      {r4-r8,pc}
                  |L5.28|
00001c  2000              MOVS     r0,#0                 ;458
00001e  6020              STR      r0,[r4,#0]            ;458
000020  80a0              STRH     r0,[r4,#4]            ;459
000022  72a0              STRB     r0,[r4,#0xa]          ;460
000024  72e0              STRB     r0,[r4,#0xb]          ;461
000026  4621              MOV      r1,r4                 ;464
000028  4628              MOV      r0,r5                 ;464
00002a  f7fffffe          BL       tcp_arg
00002e  4905              LDR      r1,|L5.68|
000030  4628              MOV      r0,r5                 ;468
000032  f7fffffe          BL       tcp_recv
000036  4904              LDR      r1,|L5.72|
000038  4628              MOV      r0,r5                 ;469
00003a  f7fffffe          BL       tcp_err
00003e  2000              MOVS     r0,#0                 ;472
000040  e7ea              B        |L5.24|
;;;474    
                          ENDP

000042  0000              DCW      0x0000
                  |L5.68|
                          DCD      http_recv
                  |L5.72|
                          DCD      conn_err

                          AREA ||i.http_recv||, CODE, READONLY, ALIGN=2

                          REQUIRE _printf_percent
                          REQUIRE _printf_s
                          REQUIRE _printf_str
                  http_recv PROC
;;;287    static err_t
;;;288            http_recv(void *arg, struct tcp_pcb *pcb, struct pbuf *p, err_t err)
000000  e92d47f0          PUSH     {r4-r10,lr}
;;;289    {
000004  4607              MOV      r7,r0
000006  4688              MOV      r8,r1
000008  4615              MOV      r5,r2
00000a  461e              MOV      r6,r3
;;;290        // int i;
;;;291        char *data;
;;;292        struct http_state *hs;
;;;293        //added by millin, 2008.01
;;;294        //u8_t hour,min,sec;
;;;295        //u16_t day;
;;;296    
;;;297        hs = arg;
00000c  463c              MOV      r4,r7
;;;298    
;;;299        if(err == ERR_OK && p != NULL) {
00000e  bbf6              CBNZ     r6,|L6.142|
000010  b3ed              CBZ      r5,|L6.142|
;;;300    
;;;301            /* Inform TCP that we have taken the data. */
;;;302            tcp_recved(pcb, p->tot_len);
000012  8929              LDRH     r1,[r5,#8]
000014  4640              MOV      r0,r8
000016  f7fffffe          BL       tcp_recved
;;;303            printf("#########################################\r\n %s \r\n",p->payload);
00001a  a044              ADR      r0,|L6.300|
00001c  6869              LDR      r1,[r5,#4]
00001e  f7fffffe          BL       __2printf
;;;304            if(hs->file == NULL) {
000022  6820              LDR      r0,[r4,#0]
000024  bba0              CBNZ     r0,|L6.144|
;;;305                data = p->payload;
000026  f8d59004          LDR      r9,[r5,#4]
;;;306                if(!memcmp(data,"GET /",strlen("GET /"))) {//GET /
00002a  2205              MOVS     r2,#5
00002c  a14c              ADR      r1,|L6.352|
00002e  4648              MOV      r0,r9
000030  f7fffffe          BL       memcmp
000034  bb68              CBNZ     r0,|L6.146|
;;;307                    err = tcp_write(pcb,http_html_hdr,strlen(http_html_hdr), 0);
000036  484c              LDR      r0,|L6.360|
000038  f7fffffe          BL       strlen
00003c  fa1ffa80          UXTH     r10,r0
000040  2300              MOVS     r3,#0
000042  4652              MOV      r2,r10
000044  4948              LDR      r1,|L6.360|
000046  4640              MOV      r0,r8
000048  f7fffffe          BL       tcp_write
00004c  4606              MOV      r6,r0
;;;308    		hs->file =(char *)&html;
00004e  4847              LDR      r0,|L6.364|
000050  6020              STR      r0,[r4,#0]
;;;309    		hs->left =sizeof(html);
000052  f640507f          MOV      r0,#0xd7f
000056  80a0              STRH     r0,[r4,#4]
;;;310    		hs->len =512;
000058  f44f7000          MOV      r0,#0x200
00005c  80e0              STRH     r0,[r4,#6]
;;;311    		hs->index=0;
00005e  2000              MOVS     r0,#0
000060  8120              STRH     r0,[r4,#8]
;;;312                    if(!memcmp(data,"GET /Route?",strlen("GET /Route?"))){//GET /Route?http
000062  220b              MOVS     r2,#0xb
000064  a142              ADR      r1,|L6.368|
000066  4648              MOV      r0,r9
000068  f7fffffe          BL       memcmp
00006c  b930              CBNZ     r0,|L6.124|
;;;313                        //para_string((unsigned char *)data);
;;;314                        write_flash_config((u16 *)data,512);
00006e  f44f7100          MOV      r1,#0x200
000072  4648              MOV      r0,r9
000074  f7fffffe          BL       write_flash_config
;;;315                        hs->cfg=1;
000078  2001              MOVS     r0,#1
00007a  72e0              STRB     r0,[r4,#0xb]
                  |L6.124|
;;;316    
;;;317                    }
;;;318                    if(!memcmp(data,"GET /J_OPEN?",strlen("GET /J_OPEN?"))){//GET /Route?http
00007c  220c              MOVS     r2,#0xc
00007e  a13f              ADR      r1,|L6.380|
000080  4648              MOV      r0,r9
000082  f7fffffe          BL       memcmp
000086  b908              CBNZ     r0,|L6.140|
;;;319                        //para_string((unsigned char *)data);
;;;320                        //write_flash_config((u16 *)data,512);
;;;321                        LED3(0);
;;;322                        hs->cfg=0;
000088  2000              MOVS     r0,#0
00008a  72e0              STRB     r0,[r4,#0xb]
                  |L6.140|
;;;323    
;;;324                    }
;;;325                    if(!memcmp(data,"GET /J_CLOSE?",strlen("GET /J_CLOSE?"))){//GET /Route?http
00008c  e002              B        |L6.148|
                  |L6.142|
00008e  e044              B        |L6.282|
                  |L6.144|
000090  e040              B        |L6.276|
                  |L6.146|
000092  e037              B        |L6.260|
                  |L6.148|
000094  220d              MOVS     r2,#0xd
000096  a13d              ADR      r1,|L6.396|
000098  4648              MOV      r0,r9
00009a  f7fffffe          BL       memcmp
00009e  b908              CBNZ     r0,|L6.164|
;;;326                        //para_string((unsigned char *)data);
;;;327                        LED3(1);
;;;328                        hs->cfg=0;
0000a0  2000              MOVS     r0,#0
0000a2  72e0              STRB     r0,[r4,#0xb]
                  |L6.164|
;;;329    
;;;330                    }
;;;331                    if(!memcmp(data,"GET /LED_OPEN?",strlen("GET /LED_OPEN?"))){//GET /Route?http
0000a4  220e              MOVS     r2,#0xe
0000a6  a13d              ADR      r1,|L6.412|
0000a8  4648              MOV      r0,r9
0000aa  f7fffffe          BL       memcmp
0000ae  b900              CBNZ     r0,|L6.178|
;;;332                        //para_string((unsigned char *)data);
;;;333                        //hs->cfg=1;
;;;334                        LED1(0);
;;;335                        LED2(0);
0000b0  bf00              NOP      
                  |L6.178|
;;;336    
;;;337                    }
;;;338                    if(!memcmp(data,"GET /CLOSE?",strlen("GET /LED_CLOSE?"))){//GET /Route?http
0000b2  220f              MOVS     r2,#0xf
0000b4  a13d              ADR      r1,|L6.428|
0000b6  4648              MOV      r0,r9
0000b8  f7fffffe          BL       memcmp
0000bc  b900              CBNZ     r0,|L6.192|
;;;339                        //para_string((unsigned char *)data);
;;;340                        //hs->cfg=1;
;;;341                        LED1(1);
;;;342                        LED2(1);
0000be  bf00              NOP      
                  |L6.192|
;;;343                    }
;;;344    
;;;345                    if(!memcmp(data,"GET /RESET_SYS?",strlen("GET /RESET_SYS?"))){//GET /Route?http
0000c0  220f              MOVS     r2,#0xf
0000c2  a13d              ADR      r1,|L6.440|
0000c4  4648              MOV      r0,r9
0000c6  f7fffffe          BL       memcmp
0000ca  b908              CBNZ     r0,|L6.208|
;;;346                        //para_string((unsigned char *)data);
;;;347                        NVIC_GenerateSystemReset();
0000cc  f7fffffe          BL       NVIC_GenerateSystemReset
                  |L6.208|
;;;348                        //hs->cfg=1;
;;;349    
;;;350                    }
;;;351    
;;;352                    if(!memcmp(data,"GET /TEST_BUTTON?",strlen("GET /TEST_BUTTON?"))){//GET /Route?http
0000d0  2211              MOVS     r2,#0x11
0000d2  a13d              ADR      r1,|L6.456|
0000d4  4648              MOV      r0,r9
0000d6  f7fffffe          BL       memcmp
0000da  b910              CBNZ     r0,|L6.226|
;;;353                        //para_string((unsigned char *)data);
;;;354                        //NVIC_GenerateSystemReset();
;;;355                        //hs->cfg=1;
;;;356                        printf("WWW.CSGSM.COM\n");
0000dc  a03f              ADR      r0,|L6.476|
0000de  f7fffffe          BL       __2printf
                  |L6.226|
;;;357                    }
;;;358    
;;;359                    html_cgi((unsigned char *)html,(unsigned char *)html_buffer,hs);
0000e2  4622              MOV      r2,r4
0000e4  4941              LDR      r1,|L6.492|
0000e6  4821              LDR      r0,|L6.364|
0000e8  f7fffffe          BL       html_cgi
;;;360                    pbuf_free(p);
0000ec  4628              MOV      r0,r5
0000ee  f7fffffe          BL       pbuf_free
;;;361                    tcp_sent(pcb,http_sent);
0000f2  493f              LDR      r1,|L6.496|
0000f4  4640              MOV      r0,r8
0000f6  f7fffffe          BL       tcp_sent
;;;362                    send_data(pcb, hs);
0000fa  4621              MOV      r1,r4
0000fc  4640              MOV      r0,r8
0000fe  f7fffffe          BL       send_data
000102  e00a              B        |L6.282|
                  |L6.260|
;;;363                } //if(*data =='G')
;;;364                else {
;;;365                    pbuf_free(p);
000104  4628              MOV      r0,r5
000106  f7fffffe          BL       pbuf_free
;;;366                    close_conn(pcb, hs);
00010a  4621              MOV      r1,r4
00010c  4640              MOV      r0,r8
00010e  f7fffffe          BL       close_conn
000112  e002              B        |L6.282|
                  |L6.276|
;;;367                } //else if(*data =='G')
;;;368    
;;;369    	} //if(hs->file == NULL) 
;;;370    	
;;;371    	else {
;;;372                pbuf_free(p);
000114  4628              MOV      r0,r5
000116  f7fffffe          BL       pbuf_free
                  |L6.282|
;;;373            }
;;;374        }
;;;375    
;;;376        if(err == ERR_OK && p == NULL) {
00011a  b926              CBNZ     r6,|L6.294|
00011c  b91d              CBNZ     r5,|L6.294|
;;;377            close_conn(pcb, hs);
00011e  4621              MOV      r1,r4
000120  4640              MOV      r0,r8
000122  f7fffffe          BL       close_conn
                  |L6.294|
;;;378        }
;;;379        return ERR_OK;
000126  2000              MOVS     r0,#0
;;;380    }
000128  e8bd87f0          POP      {r4-r10,pc}
;;;381    
                          ENDP

                  |L6.300|
00012c  23232323          DCB      "#########################################\r\n %s \r\n",0
000130  23232323
000134  23232323
000138  23232323
00013c  23232323
000140  23232323
000144  23232323
000148  23232323
00014c  23232323
000150  23232323
000154  230d0a20
000158  2573200d
00015c  0a00    
00015e  00                DCB      0
00015f  00                DCB      0
                  |L6.352|
000160  47455420          DCB      "GET /",0
000164  2f00    
000166  00                DCB      0
000167  00                DCB      0
                  |L6.360|
                          DCD      http_html_hdr
                  |L6.364|
                          DCD      html
                  |L6.368|
000170  47455420          DCB      "GET /Route?",0
000174  2f526f75
000178  74653f00
                  |L6.380|
00017c  47455420          DCB      "GET /J_OPEN?",0
000180  2f4a5f4f
000184  50454e3f
000188  00      
000189  00                DCB      0
00018a  00                DCB      0
00018b  00                DCB      0
                  |L6.396|
00018c  47455420          DCB      "GET /J_CLOSE?",0
000190  2f4a5f43
000194  4c4f5345
000198  3f00    
00019a  00                DCB      0
00019b  00                DCB      0
                  |L6.412|
00019c  47455420          DCB      "GET /LED_OPEN?",0
0001a0  2f4c4544
0001a4  5f4f5045
0001a8  4e3f00  
0001ab  00                DCB      0
                  |L6.428|
0001ac  47455420          DCB      "GET /CLOSE?",0
0001b0  2f434c4f
0001b4  53453f00
                  |L6.440|
0001b8  47455420          DCB      "GET /RESET_SYS?",0
0001bc  2f524553
0001c0  45545f53
0001c4  59533f00
                  |L6.456|
0001c8  47455420          DCB      "GET /TEST_BUTTON?",0
0001cc  2f544553
0001d0  545f4255
0001d4  54544f4e
0001d8  3f00    
0001da  00                DCB      0
0001db  00                DCB      0
                  |L6.476|
0001dc  5757572e          DCB      "WWW.CSGSM.COM\n",0
0001e0  43534753
0001e4  4d2e434f
0001e8  4d0a00  
0001eb  00                DCB      0
                  |L6.492|
                          DCD      html_buffer
                  |L6.496|
                          DCD      http_sent

                          AREA ||i.http_sent||, CODE, READONLY, ALIGN=2

                  http_sent PROC
;;;239    static err_t
;;;240            http_sent(void *arg, struct tcp_pcb *pcb, u16_t len)
000000  e92d41f0          PUSH     {r4-r8,lr}
;;;241    {
000004  4605              MOV      r5,r0
000006  460e              MOV      r6,r1
000008  4617              MOV      r7,r2
;;;242        struct http_state *hs;
;;;243        hs = arg;
00000a  462c              MOV      r4,r5
;;;244        hs->retries = 0;
00000c  2000              MOVS     r0,#0
00000e  72a0              STRB     r0,[r4,#0xa]
;;;245        if(hs->left > 0) {
000010  88a0              LDRH     r0,[r4,#4]
000012  2800              CMP      r0,#0
000014  dd09              BLE      |L7.42|
;;;246      	html_cgi((unsigned char *)html,(unsigned char *)html_buffer,hs);
000016  4622              MOV      r2,r4
000018  4909              LDR      r1,|L7.64|
00001a  480a              LDR      r0,|L7.68|
00001c  f7fffffe          BL       html_cgi
;;;247            send_data(pcb, hs);
000020  4621              MOV      r1,r4
000022  4630              MOV      r0,r6
000024  f7fffffe          BL       send_data
000028  e007              B        |L7.58|
                  |L7.42|
;;;248        }
;;;249        else{
;;;250      	close_conn(pcb,hs);
00002a  4621              MOV      r1,r4
00002c  4630              MOV      r0,r6
00002e  f7fffffe          BL       close_conn
;;;251    	if(hs->cfg)
000032  7ae0              LDRB     r0,[r4,#0xb]
000034  b108              CBZ      r0,|L7.58|
;;;252                NVIC_GenerateSystemReset();//reboot system to updata config
000036  f7fffffe          BL       NVIC_GenerateSystemReset
                  |L7.58|
;;;253    
;;;254        }
;;;255        return ERR_OK;
00003a  2000              MOVS     r0,#0
;;;256    }
00003c  e8bd81f0          POP      {r4-r8,pc}
;;;257    
                          ENDP

                  |L7.64|
                          DCD      html_buffer
                  |L7.68|
                          DCD      html

                          AREA ||i.httpd_init||, CODE, READONLY, ALIGN=2

                  httpd_init PROC
;;;513    /*-----------------------------------------------------------------------------------*/
;;;514    void httpd_init(void)
000000  b510              PUSH     {r4,lr}
;;;515    {
;;;516        struct tcp_pcb *pcb;
;;;517        counter = (u32_t) 0x00000000;
000002  2000              MOVS     r0,#0
000004  4909              LDR      r1,|L8.44|
000006  6008              STR      r0,[r1,#0]  ; counter
;;;518        pcb = tcp_new();
000008  f7fffffe          BL       tcp_new
00000c  4604              MOV      r4,r0
;;;519        tcp_bind(pcb, IP_ADDR_ANY, 80);
00000e  2250              MOVS     r2,#0x50
000010  4907              LDR      r1,|L8.48|
000012  4620              MOV      r0,r4
000014  f7fffffe          BL       tcp_bind
;;;520        pcb = tcp_listen(pcb);
000018  21ff              MOVS     r1,#0xff
00001a  4620              MOV      r0,r4
00001c  f7fffffe          BL       tcp_listen_with_backlog
000020  4604              MOV      r4,r0
;;;521        tcp_accept(pcb, http_accept);
000022  4904              LDR      r1,|L8.52|
000024  4620              MOV      r0,r4
000026  f7fffffe          BL       tcp_accept
;;;522    
;;;523    
;;;524    #if TEST_WEB_SRV
;;;525    
;;;526        //test web
;;;527    
;;;528        pcb = tcp_new();
;;;529        tcp_bind(pcb, IP_ADDR_ANY, 81);
;;;530        pcb = tcp_listen(pcb);
;;;531        tcp_accept(pcb, test_accept);
;;;532    #endif
;;;533    
;;;534    
;;;535    
;;;536    }
00002a  bd10              POP      {r4,pc}
;;;537    
                          ENDP

                  |L8.44|
                          DCD      counter
                  |L8.48|
                          DCD      ip_addr_any
                  |L8.52|
                          DCD      http_accept

                          AREA ||i.mmc_signal_sdio_irq||, CODE, READONLY, ALIGN=1

                  mmc_signal_sdio_irq PROC
;;;220    } */
;;;221    static void mmc_signal_sdio_irq(struct mmc_host *host)
000000  b510              PUSH     {r4,lr}
;;;222    {
000002  4604              MOV      r4,r0
;;;223    	host->ops->enable_sdio_irq(host, 0);
000004  6860              LDR      r0,[r4,#4]
000006  2100              MOVS     r1,#0
000008  6982              LDR      r2,[r0,#0x18]
00000a  4620              MOV      r0,r4
00000c  4790              BLX      r2
;;;224    	sdio_irq_thread(host);
00000e  4620              MOV      r0,r4
000010  f7fffffe          BL       sdio_irq_thread
;;;225    }
000014  bd10              POP      {r4,pc}
;;;226    
                          ENDP


                          AREA ||i.send_data||, CODE, READONLY, ALIGN=2

                  send_data PROC
;;;194    static void
;;;195            send_data(struct tcp_pcb *pcb, struct http_state *hs)
000000  e92d41f0          PUSH     {r4-r8,lr}
;;;196    {
000004  4607              MOV      r7,r0
000006  460c              MOV      r4,r1
;;;197        err_t err;
;;;198        u16_t len;
;;;199        /* We cannot send more data than space available in the send
;;;200         buffer. */ 
;;;201        if(1000 < hs->len)
000008  88e0              LDRH     r0,[r4,#6]
00000a  f5b07f7a          CMP      r0,#0x3e8
00000e  dd02              BLE      |L10.22|
;;;202            len = 1000;
000010  f44f757a          MOV      r5,#0x3e8
000014  e000              B        |L10.24|
                  |L10.22|
;;;203        else
;;;204            len =hs->len;
000016  88e5              LDRH     r5,[r4,#6]
                  |L10.24|
;;;205        err = tcp_write(pcb,html_buffer, len, 0);
000018  2300              MOVS     r3,#0
00001a  462a              MOV      r2,r5
00001c  4906              LDR      r1,|L10.56|
00001e  4638              MOV      r0,r7
000020  f7fffffe          BL       tcp_write
000024  4606              MOV      r6,r0
;;;206        if(err == ERR_OK) {
000026  b92e              CBNZ     r6,|L10.52|
;;;207            hs->file += len;
000028  6820              LDR      r0,[r4,#0]
00002a  4428              ADD      r0,r0,r5
00002c  6020              STR      r0,[r4,#0]
;;;208            hs->left -= len;
00002e  88a0              LDRH     r0,[r4,#4]
000030  1b40              SUBS     r0,r0,r5
000032  80a0              STRH     r0,[r4,#4]
                  |L10.52|
;;;209        }
;;;210    
;;;211    }
000034  e8bd81f0          POP      {r4-r8,pc}
;;;212    /*-----------------------------------------------------------------------------------*/
                          ENDP

                  |L10.56|
                          DCD      html_buffer

                          AREA ||i.xdbug_buf||, CODE, READONLY, ALIGN=2

                          REQUIRE _printf_percent
                          REQUIRE _printf_s
                          REQUIRE _printf_str
                          REQUIRE _printf_pre_padding
                          REQUIRE _printf_flags
                          REQUIRE _printf_widthprec
                          REQUIRE _printf_x
                          REQUIRE _printf_longlong_hex
                  xdbug_buf PROC
;;;147    #define RUN_TEST printk("RUN_TEST >>> LINE:%d ,,, FUNCTION:%s ,,, FILE:%s \r\n",__LINE__,__FUNCTION__,__FILE__);
;;;148    static void xdbug_buf(const char * name , const unsigned char * buf , const int len)
000000  e92d41f0          PUSH     {r4-r8,lr}
;;;149    {
000004  4605              MOV      r5,r0
000006  460e              MOV      r6,r1
000008  4617              MOV      r7,r2
;;;150    	int i = 0;
00000a  2400              MOVS     r4,#0
;;;151    	printf("dbug buf [%s]\n",name);
00000c  4629              MOV      r1,r5
00000e  a008              ADR      r0,|L11.48|
000010  f7fffffe          BL       __2printf
;;;152    	for(;i<len;i++)
000014  e004              B        |L11.32|
                  |L11.22|
;;;153    	{
;;;154    		printf("0x%02x,",buf[i]);
000016  5d31              LDRB     r1,[r6,r4]
000018  a009              ADR      r0,|L11.64|
00001a  f7fffffe          BL       __2printf
00001e  1c64              ADDS     r4,r4,#1              ;152
                  |L11.32|
000020  42bc              CMP      r4,r7                 ;152
000022  dbf8              BLT      |L11.22|
;;;155    	}
;;;156    	printf("\n");
000024  a008              ADR      r0,|L11.72|
000026  f7fffffe          BL       __2printf
;;;157    }
00002a  e8bd81f0          POP      {r4-r8,pc}
;;;158    #define DEBUG_PARAM_SDIO
                          ENDP

00002e  0000              DCW      0x0000
                  |L11.48|
000030  64627567          DCB      "dbug buf [%s]\n",0
000034  20627566
000038  205b2573
00003c  5d0a00  
00003f  00                DCB      0
                  |L11.64|
000040  30782530          DCB      "0x%02x,",0
000044  32782c00
                  |L11.72|
000048  0a00              DCB      "\n",0
00004a  00                DCB      0
00004b  00                DCB      0

                          AREA ||.bss||, DATA, NOINIT, ALIGN=0

                  html_buffer
                          %        512

                          AREA ||.constdata||, DATA, READONLY, ALIGN=0

                  html
000000  3c68746d          DCB      0x3c,0x68,0x74,0x6d
000004  6c3e0d0a          DCB      0x6c,0x3e,0x0d,0x0a
000008  3c686561          DCB      0x3c,0x68,0x65,0x61
00000c  643e0d0a          DCB      0x64,0x3e,0x0d,0x0a
000010  3c746974          DCB      0x3c,0x74,0x69,0x74
000014  6c653ecd          DCB      0x6c,0x65,0x3e,0xcd
000018  f8c2e7b2          DCB      0xf8,0xc2,0xe7,0xb2
00001c  cecafdc9          DCB      0xce,0xca,0xfd,0xc9
000020  e8d6c33c          DCB      0xe8,0xd6,0xc3,0x3c
000024  2f746974          DCB      0x2f,0x74,0x69,0x74
000028  6c653e0d          DCB      0x6c,0x65,0x3e,0x0d
00002c  0a3c7374          DCB      0x0a,0x3c,0x73,0x74
000030  796c6520          DCB      0x79,0x6c,0x65,0x20
000034  74797065          DCB      0x74,0x79,0x70,0x65
000038  3d227465          DCB      0x3d,0x22,0x74,0x65
00003c  78742f63          DCB      0x78,0x74,0x2f,0x63
000040  7373223e          DCB      0x73,0x73,0x22,0x3e
000044  0d0a3c21          DCB      0x0d,0x0a,0x3c,0x21
000048  2d2d0d0a          DCB      0x2d,0x2d,0x0d,0x0a
00004c  2e535459          DCB      0x2e,0x53,0x54,0x59
000050  4c453220          DCB      0x4c,0x45,0x32,0x20
000054  7b636f6c          DCB      0x7b,0x63,0x6f,0x6c
000058  6f723a20          DCB      0x6f,0x72,0x3a,0x20
00005c  23464630          DCB      0x23,0x46,0x46,0x30
000060  3030307d          DCB      0x30,0x30,0x30,0x7d
000064  0d0a626f          DCB      0x0d,0x0a,0x62,0x6f
000068  6479207b          DCB      0x64,0x79,0x20,0x7b
00006c  0d0a0962          DCB      0x0d,0x0a,0x09,0x62
000070  61636b67          DCB      0x61,0x63,0x6b,0x67
000074  726f756e          DCB      0x72,0x6f,0x75,0x6e
000078  642d636f          DCB      0x64,0x2d,0x63,0x6f
00007c  6c6f723a          DCB      0x6c,0x6f,0x72,0x3a
000080  20233333          DCB      0x20,0x23,0x33,0x33
000084  39394646          DCB      0x39,0x39,0x46,0x46
000088  3b0d0a7d          DCB      0x3b,0x0d,0x0a,0x7d
00008c  0d0a2e53          DCB      0x0d,0x0a,0x2e,0x53
000090  54594c45          DCB      0x54,0x59,0x4c,0x45
000094  33207b63          DCB      0x33,0x20,0x7b,0x63
000098  6f6c6f72          DCB      0x6f,0x6c,0x6f,0x72
00009c  3a202346          DCB      0x3a,0x20,0x23,0x46
0000a0  46464646          DCB      0x46,0x46,0x46,0x46
0000a4  467d0d0a          DCB      0x46,0x7d,0x0d,0x0a
0000a8  2d2d3e0d          DCB      0x2d,0x2d,0x3e,0x0d
0000ac  0a3c2f73          DCB      0x0a,0x3c,0x2f,0x73
0000b0  74796c65          DCB      0x74,0x79,0x6c,0x65
0000b4  3e0d0a3c          DCB      0x3e,0x0d,0x0a,0x3c
0000b8  6d657461          DCB      0x6d,0x65,0x74,0x61
0000bc  20687474          DCB      0x20,0x68,0x74,0x74
0000c0  702d6571          DCB      0x70,0x2d,0x65,0x71
0000c4  7569763d          DCB      0x75,0x69,0x76,0x3d
0000c8  22436f6e          DCB      0x22,0x43,0x6f,0x6e
0000cc  74656e74          DCB      0x74,0x65,0x6e,0x74
0000d0  2d547970          DCB      0x2d,0x54,0x79,0x70
0000d4  65222063          DCB      0x65,0x22,0x20,0x63
0000d8  6f6e7465          DCB      0x6f,0x6e,0x74,0x65
0000dc  6e743d22          DCB      0x6e,0x74,0x3d,0x22
0000e0  74657874          DCB      0x74,0x65,0x78,0x74
0000e4  2f68746d          DCB      0x2f,0x68,0x74,0x6d
0000e8  6c3b2063          DCB      0x6c,0x3b,0x20,0x63
0000ec  68617273          DCB      0x68,0x61,0x72,0x73
0000f0  65743d67          DCB      0x65,0x74,0x3d,0x67
0000f4  62323331          DCB      0x62,0x32,0x33,0x31
0000f8  32223e3c          DCB      0x32,0x22,0x3e,0x3c
0000fc  2f686561          DCB      0x2f,0x68,0x65,0x61
000100  643e0d0a          DCB      0x64,0x3e,0x0d,0x0a
000104  3c626f64          DCB      0x3c,0x62,0x6f,0x64
000108  793e0d0a          DCB      0x79,0x3e,0x0d,0x0a
00010c  3c683220          DCB      0x3c,0x68,0x32,0x20
000110  616c6967          DCB      0x61,0x6c,0x69,0x67
000114  6e3d226c          DCB      0x6e,0x3d,0x22,0x6c
000118  65667422          DCB      0x65,0x66,0x74,0x22
00011c  20636c61          DCB      0x20,0x63,0x6c,0x61
000120  73733d22          DCB      0x73,0x73,0x3d,0x22
000124  5354594c          DCB      0x53,0x54,0x59,0x4c
000128  4533223e          DCB      0x45,0x33,0x22,0x3e
00012c  57494649          DCB      0x57,0x49,0x46,0x49
000130  b2cecafd          DCB      0xb2,0xce,0xca,0xfd
000134  c9e8d6c3          DCB      0xc9,0xe8,0xd6,0xc3
000138  3c2f6832          DCB      0x3c,0x2f,0x68,0x32
00013c  3e0d0a3c          DCB      0x3e,0x0d,0x0a,0x3c
000140  68722073          DCB      0x68,0x72,0x20,0x73
000144  697a653d          DCB      0x69,0x7a,0x65,0x3d
000148  333e0d0a          DCB      0x33,0x3e,0x0d,0x0a
00014c  3c666f72          DCB      0x3c,0x66,0x6f,0x72
000150  6d206e61          DCB      0x6d,0x20,0x6e,0x61
000154  6d653d22          DCB      0x6d,0x65,0x3d,0x22
000158  666f726d          DCB      0x66,0x6f,0x72,0x6d
00015c  22206d65          DCB      0x22,0x20,0x6d,0x65
000160  74686f64          DCB      0x74,0x68,0x6f,0x64
000164  3d224745          DCB      0x3d,0x22,0x47,0x45
000168  54222061          DCB      0x54,0x22,0x20,0x61
00016c  6374696f          DCB      0x63,0x74,0x69,0x6f
000170  6e3d2252          DCB      0x6e,0x3d,0x22,0x52
000174  6f757465          DCB      0x6f,0x75,0x74,0x65
000178  223e0d0a          DCB      0x22,0x3e,0x0d,0x0a
00017c  20203c70          DCB      0x20,0x20,0x3c,0x70
000180  3ecedecf          DCB      0x3e,0xce,0xde,0xcf
000184  dfcdf8c0          DCB      0xdf,0xcd,0xf8,0xc0
000188  e0d0cd3a          DCB      0xe0,0xd0,0xcd,0x3a
00018c  0d0a2020          DCB      0x0d,0x0a,0x20,0x20
000190  20203c73          DCB      0x20,0x20,0x3c,0x73
000194  656c6563          DCB      0x65,0x6c,0x65,0x63
000198  74206e61          DCB      0x74,0x20,0x6e,0x61
00019c  6d653d22          DCB      0x6d,0x65,0x3d,0x22
0001a0  4e455422          DCB      0x4e,0x45,0x54,0x22
0001a4  3e0d0a20          DCB      0x3e,0x0d,0x0a,0x20
0001a8  20202020          DCB      0x20,0x20,0x20,0x20
0001ac  203c6f70          DCB      0x20,0x3c,0x6f,0x70
0001b0  74696f6e          DCB      0x74,0x69,0x6f,0x6e
0001b4  2076616c          DCB      0x20,0x76,0x61,0x6c
0001b8  75653d22          DCB      0x75,0x65,0x3d,0x22
0001bc  30222073          DCB      0x30,0x22,0x20,0x73
0001c0  656c6563          DCB      0x65,0x6c,0x65,0x63
0001c4  7465643e          DCB      0x74,0x65,0x64,0x3e
0001c8  496e6672          DCB      0x49,0x6e,0x66,0x72
0001cc  613c2f6f          DCB      0x61,0x3c,0x2f,0x6f
0001d0  7074696f          DCB      0x70,0x74,0x69,0x6f
0001d4  6e3e0d0a          DCB      0x6e,0x3e,0x0d,0x0a
0001d8  20202020          DCB      0x20,0x20,0x20,0x20
0001dc  20203c6f          DCB      0x20,0x20,0x3c,0x6f
0001e0  7074696f          DCB      0x70,0x74,0x69,0x6f
0001e4  6e207661          DCB      0x6e,0x20,0x76,0x61
0001e8  6c75653d          DCB      0x6c,0x75,0x65,0x3d
0001ec  22312220          DCB      0x22,0x31,0x22,0x20
0001f0  20202020          DCB      0x20,0x20,0x20,0x20
0001f4  20202020          DCB      0x20,0x20,0x20,0x20
0001f8  3e41642d          DCB      0x3e,0x41,0x64,0x2d
0001fc  486f633c          DCB      0x48,0x6f,0x63,0x3c
000200  2f6f7074          DCB      0x2f,0x6f,0x70,0x74
000204  696f6e3e          DCB      0x69,0x6f,0x6e,0x3e
000208  0d0a2020          DCB      0x0d,0x0a,0x20,0x20
00020c  20203c2f          DCB      0x20,0x20,0x3c,0x2f
000210  73656c65          DCB      0x73,0x65,0x6c,0x65
000214  63743e0d          DCB      0x63,0x74,0x3e,0x0d
000218  0a20203c          DCB      0x0a,0x20,0x20,0x3c
00021c  2f703e0d          DCB      0x2f,0x70,0x3e,0x0d
000220  0a20203c          DCB      0x0a,0x20,0x20,0x3c
000224  703ecede          DCB      0x70,0x3e,0xce,0xde
000228  cfdfcdf8          DCB      0xcf,0xdf,0xcd,0xf8
00022c  c3fbb3c6          DCB      0xc3,0xfb,0xb3,0xc6
000230  3a0d0a20          DCB      0x3a,0x0d,0x0a,0x20
000234  2020203c          DCB      0x20,0x20,0x20,0x3c
000238  696e7075          DCB      0x69,0x6e,0x70,0x75
00023c  74206e61          DCB      0x74,0x20,0x6e,0x61
000240  6d653d22          DCB      0x6d,0x65,0x3d,0x22
000244  53534944          DCB      0x53,0x53,0x49,0x44
000248  22207479          DCB      0x22,0x20,0x74,0x79
00024c  70653d22          DCB      0x70,0x65,0x3d,0x22
000250  74657874          DCB      0x74,0x65,0x78,0x74
000254  22207661          DCB      0x22,0x20,0x76,0x61
000258  6c75653d          DCB      0x6c,0x75,0x65,0x3d
00025c  226c696e          DCB      0x22,0x6c,0x69,0x6e
000260  75782220          DCB      0x75,0x78,0x22,0x20
000264  20202020          DCB      0x20,0x20,0x20,0x20
000268  20202020          DCB      0x20,0x20,0x20,0x20
00026c  20202020          DCB      0x20,0x20,0x20,0x20
000270  20202020          DCB      0x20,0x20,0x20,0x20
000274  20202020          DCB      0x20,0x20,0x20,0x20
000278  20202020          DCB      0x20,0x20,0x20,0x20
00027c  20202020          DCB      0x20,0x20,0x20,0x20
000280  20202020          DCB      0x20,0x20,0x20,0x20
000284  20202020          DCB      0x20,0x20,0x20,0x20
000288  20202020          DCB      0x20,0x20,0x20,0x20
00028c  20202020          DCB      0x20,0x20,0x20,0x20
000290  20202020          DCB      0x20,0x20,0x20,0x20
000294  20202020          DCB      0x20,0x20,0x20,0x20
000298  20202020          DCB      0x20,0x20,0x20,0x20
00029c  3e0d0a20          DCB      0x3e,0x0d,0x0a,0x20
0002a0  203c2f70          DCB      0x20,0x3c,0x2f,0x70
0002a4  3e0d0a20          DCB      0x3e,0x0d,0x0a,0x20
0002a8  203c703e          DCB      0x20,0x3c,0x70,0x3e
0002ac  cedecfdf          DCB      0xce,0xde,0xcf,0xdf
0002b0  cdf8c3dc          DCB      0xcd,0xf8,0xc3,0xdc
0002b4  d4bf3a20          DCB      0xd4,0xbf,0x3a,0x20
0002b8  200d0a20          DCB      0x20,0x0d,0x0a,0x20
0002bc  2020203c          DCB      0x20,0x20,0x20,0x3c
0002c0  696e7075          DCB      0x69,0x6e,0x70,0x75
0002c4  74206e61          DCB      0x74,0x20,0x6e,0x61
0002c8  6d653d22          DCB      0x6d,0x65,0x3d,0x22
0002cc  4b455922          DCB      0x4b,0x45,0x59,0x22
0002d0  20747970          DCB      0x20,0x74,0x79,0x70
0002d4  653d2270          DCB      0x65,0x3d,0x22,0x70
0002d8  61737377          DCB      0x61,0x73,0x73,0x77
0002dc  6f726422          DCB      0x6f,0x72,0x64,0x22
0002e0  2076616c          DCB      0x20,0x76,0x61,0x6c
0002e4  75653d22          DCB      0x75,0x65,0x3d,0x22
0002e8  22202020          DCB      0x22,0x20,0x20,0x20
0002ec  20202020          DCB      0x20,0x20,0x20,0x20
0002f0  20202020          DCB      0x20,0x20,0x20,0x20
0002f4  20202020          DCB      0x20,0x20,0x20,0x20
0002f8  20202020          DCB      0x20,0x20,0x20,0x20
0002fc  20202020          DCB      0x20,0x20,0x20,0x20
000300  20202020          DCB      0x20,0x20,0x20,0x20
000304  20202020          DCB      0x20,0x20,0x20,0x20
000308  20202020          DCB      0x20,0x20,0x20,0x20
00030c  20202020          DCB      0x20,0x20,0x20,0x20
000310  20202020          DCB      0x20,0x20,0x20,0x20
000314  20202020          DCB      0x20,0x20,0x20,0x20
000318  20202020          DCB      0x20,0x20,0x20,0x20
00031c  20202020          DCB      0x20,0x20,0x20,0x20
000320  20202020          DCB      0x20,0x20,0x20,0x20
000324  3e0d0a20          DCB      0x3e,0x0d,0x0a,0x20
000328  20a3a8d6          DCB      0x20,0xa3,0xa8,0xd6
00032c  bbd6a7b3          DCB      0xbb,0xd6,0xa7,0xb3
000330  d6574550          DCB      0xd6,0x57,0x45,0x50
000334  bcd3c3dc          DCB      0xbc,0xd3,0xc3,0xdc
000338  a3acbfaa          DCB      0xa3,0xac,0xbf,0xaa
00033c  b7c5cdf8          DCB      0xb7,0xc5,0xcd,0xf8
000340  c2e7b1a3          DCB      0xc2,0xe7,0xb1,0xa3
000344  b3d6ceaa          DCB      0xb3,0xd6,0xce,0xaa
000348  bfd5a3a9          DCB      0xbf,0xd5,0xa3,0xa9
00034c  3c2f703e          DCB      0x3c,0x2f,0x70,0x3e
000350  0d0a2020          DCB      0x0d,0x0a,0x20,0x20
000354  3c703ece          DCB      0x3c,0x70,0x3e,0xce
000358  decfdfcd          DCB      0xde,0xcf,0xdf,0xcd
00035c  f8c2e749          DCB      0xf8,0xc2,0xe7,0x49
000360  503a0d0a          DCB      0x50,0x3a,0x0d,0x0a
000364  20202020          DCB      0x20,0x20,0x20,0x20
000368  3c696e70          DCB      0x3c,0x69,0x6e,0x70
00036c  7574206e          DCB      0x75,0x74,0x20,0x6e
000370  616d653d          DCB      0x61,0x6d,0x65,0x3d
000374  22574950          DCB      0x22,0x57,0x49,0x50
000378  31222020          DCB      0x31,0x22,0x20,0x20
00037c  74797065          DCB      0x74,0x79,0x70,0x65
000380  3d227465          DCB      0x3d,0x22,0x74,0x65
000384  78742220          DCB      0x78,0x74,0x22,0x20
000388  73697a65          DCB      0x73,0x69,0x7a,0x65
00038c  3d223322          DCB      0x3d,0x22,0x33,0x22
000390  206d6178          DCB      0x20,0x6d,0x61,0x78
000394  6c656e67          DCB      0x6c,0x65,0x6e,0x67
000398  74683d22          DCB      0x74,0x68,0x3d,0x22
00039c  33222076          DCB      0x33,0x22,0x20,0x76
0003a0  616c7565          DCB      0x61,0x6c,0x75,0x65
0003a4  3d223139          DCB      0x3d,0x22,0x31,0x39
0003a8  32222f3e          DCB      0x32,0x22,0x2f,0x3e
0003ac  200d0a20          DCB      0x20,0x0d,0x0a,0x20
0003b0  2020203c          DCB      0x20,0x20,0x20,0x3c
0003b4  696e7075          DCB      0x69,0x6e,0x70,0x75
0003b8  74206e61          DCB      0x74,0x20,0x6e,0x61
0003bc  6d653d22          DCB      0x6d,0x65,0x3d,0x22
0003c0  57495032          DCB      0x57,0x49,0x50,0x32
0003c4  22202074          DCB      0x22,0x20,0x20,0x74
0003c8  7970653d          DCB      0x79,0x70,0x65,0x3d
0003cc  22746578          DCB      0x22,0x74,0x65,0x78
0003d0  74222073          DCB      0x74,0x22,0x20,0x73
0003d4  697a653d          DCB      0x69,0x7a,0x65,0x3d
0003d8  22332220          DCB      0x22,0x33,0x22,0x20
0003dc  6d61786c          DCB      0x6d,0x61,0x78,0x6c
0003e0  656e6774          DCB      0x65,0x6e,0x67,0x74
0003e4  683d2233          DCB      0x68,0x3d,0x22,0x33
0003e8  22207661          DCB      0x22,0x20,0x76,0x61
0003ec  6c75653d          DCB      0x6c,0x75,0x65,0x3d
0003f0  22313638          DCB      0x22,0x31,0x36,0x38
0003f4  222f3e0d          DCB      0x22,0x2f,0x3e,0x0d
0003f8  0a202020          DCB      0x0a,0x20,0x20,0x20
0003fc  203c696e          DCB      0x20,0x3c,0x69,0x6e
000400  70757420          DCB      0x70,0x75,0x74,0x20
000404  6e616d65          DCB      0x6e,0x61,0x6d,0x65
000408  3d225749          DCB      0x3d,0x22,0x57,0x49
00040c  50332220          DCB      0x50,0x33,0x22,0x20
000410  20747970          DCB      0x20,0x74,0x79,0x70
000414  653d2274          DCB      0x65,0x3d,0x22,0x74
000418  65787422          DCB      0x65,0x78,0x74,0x22
00041c  2073697a          DCB      0x20,0x73,0x69,0x7a
000420  653d2233          DCB      0x65,0x3d,0x22,0x33
000424  22206d61          DCB      0x22,0x20,0x6d,0x61
000428  786c656e          DCB      0x78,0x6c,0x65,0x6e
00042c  6774683d          DCB      0x67,0x74,0x68,0x3d
000430  22332220          DCB      0x22,0x33,0x22,0x20
000434  76616c75          DCB      0x76,0x61,0x6c,0x75
000438  653d2231          DCB      0x65,0x3d,0x22,0x31
00043c  3434222f          DCB      0x34,0x34,0x22,0x2f
000440  3e0d0a20          DCB      0x3e,0x0d,0x0a,0x20
000444  2020203c          DCB      0x20,0x20,0x20,0x3c
000448  696e7075          DCB      0x69,0x6e,0x70,0x75
00044c  74206e61          DCB      0x74,0x20,0x6e,0x61
000450  6d653d22          DCB      0x6d,0x65,0x3d,0x22
000454  57495034          DCB      0x57,0x49,0x50,0x34
000458  22202074          DCB      0x22,0x20,0x20,0x74
00045c  7970653d          DCB      0x79,0x70,0x65,0x3d
000460  22746578          DCB      0x22,0x74,0x65,0x78
000464  74222073          DCB      0x74,0x22,0x20,0x73
000468  697a653d          DCB      0x69,0x7a,0x65,0x3d
00046c  22332220          DCB      0x22,0x33,0x22,0x20
000470  6d61786c          DCB      0x6d,0x61,0x78,0x6c
000474  656e6774          DCB      0x65,0x6e,0x67,0x74
000478  683d2233          DCB      0x68,0x3d,0x22,0x33
00047c  22207661          DCB      0x22,0x20,0x76,0x61
000480  6c75653d          DCB      0x6c,0x75,0x65,0x3d
000484  22303130          DCB      0x22,0x30,0x31,0x30
000488  222f3e0d          DCB      0x22,0x2f,0x3e,0x0d
00048c  0a202028          DCB      0x0a,0x20,0x20,0x28
000490  302e2e32          DCB      0x30,0x2e,0x2e,0x32
000494  35352920          DCB      0x35,0x35,0x29,0x20
000498  3c2f703e          DCB      0x3c,0x2f,0x70,0x3e
00049c  0d0a2020          DCB      0x0d,0x0a,0x20,0x20
0004a0  3c703ed7          DCB      0x3c,0x70,0x3e,0xd7
0004a4  d320cdf8          DCB      0xd3,0x20,0xcd,0xf8
0004a8  20d1dac2          DCB      0x20,0xd1,0xda,0xc2
0004ac  eb3a0d0a          DCB      0xeb,0x3a,0x0d,0x0a
0004b0  20202020          DCB      0x20,0x20,0x20,0x20
0004b4  3c696e70          DCB      0x3c,0x69,0x6e,0x70
0004b8  7574206e          DCB      0x75,0x74,0x20,0x6e
0004bc  616d653d          DCB      0x61,0x6d,0x65,0x3d
0004c0  224d4153          DCB      0x22,0x4d,0x41,0x53
0004c4  4b312220          DCB      0x4b,0x31,0x22,0x20
0004c8  20747970          DCB      0x20,0x74,0x79,0x70
0004cc  653d2274          DCB      0x65,0x3d,0x22,0x74
0004d0  65787422          DCB      0x65,0x78,0x74,0x22
0004d4  2073697a          DCB      0x20,0x73,0x69,0x7a
0004d8  653d2233          DCB      0x65,0x3d,0x22,0x33
0004dc  22206d61          DCB      0x22,0x20,0x6d,0x61
0004e0  786c656e          DCB      0x78,0x6c,0x65,0x6e
0004e4  6774683d          DCB      0x67,0x74,0x68,0x3d
0004e8  22332220          DCB      0x22,0x33,0x22,0x20
0004ec  76616c75          DCB      0x76,0x61,0x6c,0x75
0004f0  653d2232          DCB      0x65,0x3d,0x22,0x32
0004f4  3535222f          DCB      0x35,0x35,0x22,0x2f
0004f8  3e0d0a20          DCB      0x3e,0x0d,0x0a,0x20
0004fc  2020203c          DCB      0x20,0x20,0x20,0x3c
000500  696e7075          DCB      0x69,0x6e,0x70,0x75
000504  74206e61          DCB      0x74,0x20,0x6e,0x61
000508  6d653d22          DCB      0x6d,0x65,0x3d,0x22
00050c  4d41534b          DCB      0x4d,0x41,0x53,0x4b
000510  32222020          DCB      0x32,0x22,0x20,0x20
000514  74797065          DCB      0x74,0x79,0x70,0x65
000518  3d227465          DCB      0x3d,0x22,0x74,0x65
00051c  78742220          DCB      0x78,0x74,0x22,0x20
000520  73697a65          DCB      0x73,0x69,0x7a,0x65
000524  3d223322          DCB      0x3d,0x22,0x33,0x22
000528  206d6178          DCB      0x20,0x6d,0x61,0x78
00052c  6c656e67          DCB      0x6c,0x65,0x6e,0x67
000530  74683d22          DCB      0x74,0x68,0x3d,0x22
000534  33222076          DCB      0x33,0x22,0x20,0x76
000538  616c7565          DCB      0x61,0x6c,0x75,0x65
00053c  3d223235          DCB      0x3d,0x22,0x32,0x35
000540  35222f3e          DCB      0x35,0x22,0x2f,0x3e
000544  0d0a2020          DCB      0x0d,0x0a,0x20,0x20
000548  20203c69          DCB      0x20,0x20,0x3c,0x69
00054c  6e707574          DCB      0x6e,0x70,0x75,0x74
000550  206e616d          DCB      0x20,0x6e,0x61,0x6d
000554  653d224d          DCB      0x65,0x3d,0x22,0x4d
000558  41534b33          DCB      0x41,0x53,0x4b,0x33
00055c  22202074          DCB      0x22,0x20,0x20,0x74
000560  7970653d          DCB      0x79,0x70,0x65,0x3d
000564  22746578          DCB      0x22,0x74,0x65,0x78
000568  74222073          DCB      0x74,0x22,0x20,0x73
00056c  697a653d          DCB      0x69,0x7a,0x65,0x3d
000570  22332220          DCB      0x22,0x33,0x22,0x20
000574  6d61786c          DCB      0x6d,0x61,0x78,0x6c
000578  656e6774          DCB      0x65,0x6e,0x67,0x74
00057c  683d2233          DCB      0x68,0x3d,0x22,0x33
000580  22207661          DCB      0x22,0x20,0x76,0x61
000584  6c75653d          DCB      0x6c,0x75,0x65,0x3d
000588  22323535          DCB      0x22,0x32,0x35,0x35
00058c  222f3e0d          DCB      0x22,0x2f,0x3e,0x0d
000590  0a202020          DCB      0x0a,0x20,0x20,0x20
000594  203c696e          DCB      0x20,0x3c,0x69,0x6e
000598  70757420          DCB      0x70,0x75,0x74,0x20
00059c  6e616d65          DCB      0x6e,0x61,0x6d,0x65
0005a0  3d224d41          DCB      0x3d,0x22,0x4d,0x41
0005a4  534b3422          DCB      0x53,0x4b,0x34,0x22
0005a8  20207479          DCB      0x20,0x20,0x74,0x79
0005ac  70653d22          DCB      0x70,0x65,0x3d,0x22
0005b0  74657874          DCB      0x74,0x65,0x78,0x74
0005b4  22207369          DCB      0x22,0x20,0x73,0x69
0005b8  7a653d22          DCB      0x7a,0x65,0x3d,0x22
0005bc  3322206d          DCB      0x33,0x22,0x20,0x6d
0005c0  61786c65          DCB      0x61,0x78,0x6c,0x65
0005c4  6e677468          DCB      0x6e,0x67,0x74,0x68
0005c8  3d223322          DCB      0x3d,0x22,0x33,0x22
0005cc  2076616c          DCB      0x20,0x76,0x61,0x6c
0005d0  75653d22          DCB      0x75,0x65,0x3d,0x22
0005d4  30303022          DCB      0x30,0x30,0x30,0x22
0005d8  2f3e0d0a          DCB      0x2f,0x3e,0x0d,0x0a
0005dc  20203c2f          DCB      0x20,0x20,0x3c,0x2f
0005e0  703e0d0a          DCB      0x70,0x3e,0x0d,0x0a
0005e4  20203c70          DCB      0x20,0x20,0x3c,0x70
0005e8  3ec4ac20          DCB      0x3e,0xc4,0xac,0x20
0005ec  c8cf20cd          DCB      0xc8,0xcf,0x20,0xcd
0005f0  f8b9d83a          DCB      0xf8,0xb9,0xd8,0x3a
0005f4  0d0a2020          DCB      0x0d,0x0a,0x20,0x20
0005f8  20203c69          DCB      0x20,0x20,0x3c,0x69
0005fc  6e707574          DCB      0x6e,0x70,0x75,0x74
000600  206e616d          DCB      0x20,0x6e,0x61,0x6d
000604  653d2247          DCB      0x65,0x3d,0x22,0x47
000608  57312220          DCB      0x57,0x31,0x22,0x20
00060c  20747970          DCB      0x20,0x74,0x79,0x70
000610  653d2274          DCB      0x65,0x3d,0x22,0x74
000614  65787422          DCB      0x65,0x78,0x74,0x22
000618  2073697a          DCB      0x20,0x73,0x69,0x7a
00061c  653d2233          DCB      0x65,0x3d,0x22,0x33
000620  22206d61          DCB      0x22,0x20,0x6d,0x61
000624  786c656e          DCB      0x78,0x6c,0x65,0x6e
000628  6774683d          DCB      0x67,0x74,0x68,0x3d
00062c  22332220          DCB      0x22,0x33,0x22,0x20
000630  76616c75          DCB      0x76,0x61,0x6c,0x75
000634  653d2231          DCB      0x65,0x3d,0x22,0x31
000638  3932222f          DCB      0x39,0x32,0x22,0x2f
00063c  3e0d0a20          DCB      0x3e,0x0d,0x0a,0x20
000640  2020203c          DCB      0x20,0x20,0x20,0x3c
000644  696e7075          DCB      0x69,0x6e,0x70,0x75
000648  74206e61          DCB      0x74,0x20,0x6e,0x61
00064c  6d653d22          DCB      0x6d,0x65,0x3d,0x22
000650  47573222          DCB      0x47,0x57,0x32,0x22
000654  20207479          DCB      0x20,0x20,0x74,0x79
000658  70653d22          DCB      0x70,0x65,0x3d,0x22
00065c  74657874          DCB      0x74,0x65,0x78,0x74
000660  22207369          DCB      0x22,0x20,0x73,0x69
000664  7a653d22          DCB      0x7a,0x65,0x3d,0x22
000668  3322206d          DCB      0x33,0x22,0x20,0x6d
00066c  61786c65          DCB      0x61,0x78,0x6c,0x65
000670  6e677468          DCB      0x6e,0x67,0x74,0x68
000674  3d223322          DCB      0x3d,0x22,0x33,0x22
000678  2076616c          DCB      0x20,0x76,0x61,0x6c
00067c  75653d22          DCB      0x75,0x65,0x3d,0x22
000680  31363822          DCB      0x31,0x36,0x38,0x22
000684  2f3e0d0a          DCB      0x2f,0x3e,0x0d,0x0a
000688  20202020          DCB      0x20,0x20,0x20,0x20
00068c  3c696e70          DCB      0x3c,0x69,0x6e,0x70
000690  7574206e          DCB      0x75,0x74,0x20,0x6e
000694  616d653d          DCB      0x61,0x6d,0x65,0x3d
000698  22475733          DCB      0x22,0x47,0x57,0x33
00069c  22202074          DCB      0x22,0x20,0x20,0x74
0006a0  7970653d          DCB      0x79,0x70,0x65,0x3d
0006a4  22746578          DCB      0x22,0x74,0x65,0x78
0006a8  74222073          DCB      0x74,0x22,0x20,0x73
0006ac  697a653d          DCB      0x69,0x7a,0x65,0x3d
0006b0  22332220          DCB      0x22,0x33,0x22,0x20
0006b4  6d61786c          DCB      0x6d,0x61,0x78,0x6c
0006b8  656e6774          DCB      0x65,0x6e,0x67,0x74
0006bc  683d2233          DCB      0x68,0x3d,0x22,0x33
0006c0  22207661          DCB      0x22,0x20,0x76,0x61
0006c4  6c75653d          DCB      0x6c,0x75,0x65,0x3d
0006c8  22303031          DCB      0x22,0x30,0x30,0x31
0006cc  222f3e0d          DCB      0x22,0x2f,0x3e,0x0d
0006d0  0a202020          DCB      0x0a,0x20,0x20,0x20
0006d4  203c696e          DCB      0x20,0x3c,0x69,0x6e
0006d8  70757420          DCB      0x70,0x75,0x74,0x20
0006dc  6e616d65          DCB      0x6e,0x61,0x6d,0x65
0006e0  3d224757          DCB      0x3d,0x22,0x47,0x57
0006e4  34222020          DCB      0x34,0x22,0x20,0x20
0006e8  74797065          DCB      0x74,0x79,0x70,0x65
0006ec  3d227465          DCB      0x3d,0x22,0x74,0x65
0006f0  78742220          DCB      0x78,0x74,0x22,0x20
0006f4  73697a65          DCB      0x73,0x69,0x7a,0x65
0006f8  3d223322          DCB      0x3d,0x22,0x33,0x22
0006fc  206d6178          DCB      0x20,0x6d,0x61,0x78
000700  6c656e67          DCB      0x6c,0x65,0x6e,0x67
000704  74683d22          DCB      0x74,0x68,0x3d,0x22
000708  33222076          DCB      0x33,0x22,0x20,0x76
00070c  616c7565          DCB      0x61,0x6c,0x75,0x65
000710  3d223030          DCB      0x3d,0x22,0x30,0x30
000714  31222f3e          DCB      0x31,0x22,0x2f,0x3e
000718  0d0a2020          DCB      0x0d,0x0a,0x20,0x20
00071c  3c2f703e          DCB      0x3c,0x2f,0x70,0x3e
000720  0d0a2020          DCB      0x0d,0x0a,0x20,0x20
000724  3c703e44          DCB      0x3c,0x70,0x3e,0x44
000728  4e5320b7          DCB      0x4e,0x53,0x20,0xb7
00072c  fecef1c6          DCB      0xfe,0xce,0xf1,0xc6
000730  f73a0d0a          DCB      0xf7,0x3a,0x0d,0x0a
000734  20202020          DCB      0x20,0x20,0x20,0x20
000738  3c696e70          DCB      0x3c,0x69,0x6e,0x70
00073c  7574206e          DCB      0x75,0x74,0x20,0x6e
000740  616d653d          DCB      0x61,0x6d,0x65,0x3d
000744  22444e53          DCB      0x22,0x44,0x4e,0x53
000748  31222020          DCB      0x31,0x22,0x20,0x20
00074c  74797065          DCB      0x74,0x79,0x70,0x65
000750  3d227465          DCB      0x3d,0x22,0x74,0x65
000754  78742220          DCB      0x78,0x74,0x22,0x20
000758  73697a65          DCB      0x73,0x69,0x7a,0x65
00075c  3d223322          DCB      0x3d,0x22,0x33,0x22
000760  206d6178          DCB      0x20,0x6d,0x61,0x78
000764  6c656e67          DCB      0x6c,0x65,0x6e,0x67
000768  74683d22          DCB      0x74,0x68,0x3d,0x22
00076c  33222076          DCB      0x33,0x22,0x20,0x76
000770  616c7565          DCB      0x61,0x6c,0x75,0x65
000774  3d223230          DCB      0x3d,0x22,0x32,0x30
000778  32222f3e          DCB      0x32,0x22,0x2f,0x3e
00077c  0d0a2020          DCB      0x0d,0x0a,0x20,0x20
000780  20203c69          DCB      0x20,0x20,0x3c,0x69
000784  6e707574          DCB      0x6e,0x70,0x75,0x74
000788  206e616d          DCB      0x20,0x6e,0x61,0x6d
00078c  653d2244          DCB      0x65,0x3d,0x22,0x44
000790  4e533222          DCB      0x4e,0x53,0x32,0x22
000794  20207479          DCB      0x20,0x20,0x74,0x79
000798  70653d22          DCB      0x70,0x65,0x3d,0x22
00079c  74657874          DCB      0x74,0x65,0x78,0x74
0007a0  22207369          DCB      0x22,0x20,0x73,0x69
0007a4  7a653d22          DCB      0x7a,0x65,0x3d,0x22
0007a8  3322206d          DCB      0x33,0x22,0x20,0x6d
0007ac  61786c65          DCB      0x61,0x78,0x6c,0x65
0007b0  6e677468          DCB      0x6e,0x67,0x74,0x68
0007b4  3d223322          DCB      0x3d,0x22,0x33,0x22
0007b8  2076616c          DCB      0x20,0x76,0x61,0x6c
0007bc  75653d22          DCB      0x75,0x65,0x3d,0x22
0007c0  31313422          DCB      0x31,0x31,0x34,0x22
0007c4  2f3e0d0a          DCB      0x2f,0x3e,0x0d,0x0a
0007c8  20202020          DCB      0x20,0x20,0x20,0x20
0007cc  3c696e70          DCB      0x3c,0x69,0x6e,0x70
0007d0  7574206e          DCB      0x75,0x74,0x20,0x6e
0007d4  616d653d          DCB      0x61,0x6d,0x65,0x3d
0007d8  22444e53          DCB      0x22,0x44,0x4e,0x53
0007dc  33222020          DCB      0x33,0x22,0x20,0x20
0007e0  74797065          DCB      0x74,0x79,0x70,0x65
0007e4  3d227465          DCB      0x3d,0x22,0x74,0x65
0007e8  78742220          DCB      0x78,0x74,0x22,0x20
0007ec  73697a65          DCB      0x73,0x69,0x7a,0x65
0007f0  3d223322          DCB      0x3d,0x22,0x33,0x22
0007f4  206d6178          DCB      0x20,0x6d,0x61,0x78
0007f8  6c656e67          DCB      0x6c,0x65,0x6e,0x67
0007fc  74683d22          DCB      0x74,0x68,0x3d,0x22
000800  33222076          DCB      0x33,0x22,0x20,0x76
000804  616c7565          DCB      0x61,0x6c,0x75,0x65
000808  3d223133          DCB      0x3d,0x22,0x31,0x33
00080c  34222f3e          DCB      0x34,0x22,0x2f,0x3e
000810  0d0a2020          DCB      0x0d,0x0a,0x20,0x20
000814  20203c69          DCB      0x20,0x20,0x3c,0x69
000818  6e707574          DCB      0x6e,0x70,0x75,0x74
00081c  206e616d          DCB      0x20,0x6e,0x61,0x6d
000820  653d2244          DCB      0x65,0x3d,0x22,0x44
000824  4e533422          DCB      0x4e,0x53,0x34,0x22
000828  20207479          DCB      0x20,0x20,0x74,0x79
00082c  70653d22          DCB      0x70,0x65,0x3d,0x22
000830  74657874          DCB      0x74,0x65,0x78,0x74
000834  22207369          DCB      0x22,0x20,0x73,0x69
000838  7a653d22          DCB      0x7a,0x65,0x3d,0x22
00083c  3322206d          DCB      0x33,0x22,0x20,0x6d
000840  61786c65          DCB      0x61,0x78,0x6c,0x65
000844  6e677468          DCB      0x6e,0x67,0x74,0x68
000848  3d223322          DCB      0x3d,0x22,0x33,0x22
00084c  2076616c          DCB      0x20,0x76,0x61,0x6c
000850  75653d22          DCB      0x75,0x65,0x3d,0x22
000854  31333322          DCB      0x31,0x33,0x33,0x22
000858  2f3e0d0a          DCB      0x2f,0x3e,0x0d,0x0a
00085c  20202020          DCB      0x20,0x20,0x20,0x20
000860  3c62723e          DCB      0x3c,0x62,0x72,0x3e
000864  0d0a2020          DCB      0x0d,0x0a,0x20,0x20
000868  20203c62          DCB      0x20,0x20,0x3c,0x62
00086c  723e0d0a          DCB      0x72,0x3e,0x0d,0x0a
000870  20202020          DCB      0x20,0x20,0x20,0x20
000874  cedecfdf          DCB      0xce,0xde,0xcf,0xdf
000878  cdf8204d          DCB      0xcd,0xf8,0x20,0x4d
00087c  41433a0d          DCB      0x41,0x43,0x3a,0x0d
000880  0a202020          DCB      0x0a,0x20,0x20,0x20
000884  203c696e          DCB      0x20,0x3c,0x69,0x6e
000888  70757420          DCB      0x70,0x75,0x74,0x20
00088c  6e616d65          DCB      0x6e,0x61,0x6d,0x65
000890  3d22574d          DCB      0x3d,0x22,0x57,0x4d
000894  41433022          DCB      0x41,0x43,0x30,0x22
000898  20207479          DCB      0x20,0x20,0x74,0x79
00089c  70653d22          DCB      0x70,0x65,0x3d,0x22
0008a0  74657874          DCB      0x74,0x65,0x78,0x74
0008a4  22207369          DCB      0x22,0x20,0x73,0x69
0008a8  7a653d22          DCB      0x7a,0x65,0x3d,0x22
0008ac  3222206d          DCB      0x32,0x22,0x20,0x6d
0008b0  61786c65          DCB      0x61,0x78,0x6c,0x65
0008b4  6e677468          DCB      0x6e,0x67,0x74,0x68
0008b8  3d223222          DCB      0x3d,0x22,0x32,0x22
0008bc  2076616c          DCB      0x20,0x76,0x61,0x6c
0008c0  75653d22          DCB      0x75,0x65,0x3d,0x22
0008c4  3030222f          DCB      0x30,0x30,0x22,0x2f
0008c8  3e0d0a20          DCB      0x3e,0x0d,0x0a,0x20
0008cc  2020203c          DCB      0x20,0x20,0x20,0x3c
0008d0  696e7075          DCB      0x69,0x6e,0x70,0x75
0008d4  74206e61          DCB      0x74,0x20,0x6e,0x61
0008d8  6d653d22          DCB      0x6d,0x65,0x3d,0x22
0008dc  574d4143          DCB      0x57,0x4d,0x41,0x43
0008e0  31222020          DCB      0x31,0x22,0x20,0x20
0008e4  74797065          DCB      0x74,0x79,0x70,0x65
0008e8  3d227465          DCB      0x3d,0x22,0x74,0x65
0008ec  78742220          DCB      0x78,0x74,0x22,0x20
0008f0  73697a65          DCB      0x73,0x69,0x7a,0x65
0008f4  3d223222          DCB      0x3d,0x22,0x32,0x22
0008f8  206d6178          DCB      0x20,0x6d,0x61,0x78
0008fc  6c656e67          DCB      0x6c,0x65,0x6e,0x67
000900  74683d22          DCB      0x74,0x68,0x3d,0x22
000904  32222076          DCB      0x32,0x22,0x20,0x76
000908  616c7565          DCB      0x61,0x6c,0x75,0x65
00090c  3d224446          DCB      0x3d,0x22,0x44,0x46
000910  222f3e0d          DCB      0x22,0x2f,0x3e,0x0d
000914  0a202020          DCB      0x0a,0x20,0x20,0x20
000918  203c696e          DCB      0x20,0x3c,0x69,0x6e
00091c  70757420          DCB      0x70,0x75,0x74,0x20
000920  6e616d65          DCB      0x6e,0x61,0x6d,0x65
000924  3d22574d          DCB      0x3d,0x22,0x57,0x4d
000928  41433222          DCB      0x41,0x43,0x32,0x22
00092c  20207479          DCB      0x20,0x20,0x74,0x79
000930  70653d22          DCB      0x70,0x65,0x3d,0x22
000934  74657874          DCB      0x74,0x65,0x78,0x74
000938  22207369          DCB      0x22,0x20,0x73,0x69
00093c  7a653d22          DCB      0x7a,0x65,0x3d,0x22
000940  3222206d          DCB      0x32,0x22,0x20,0x6d
000944  61786c65          DCB      0x61,0x78,0x6c,0x65
000948  6e677468          DCB      0x6e,0x67,0x74,0x68
00094c  3d223222          DCB      0x3d,0x22,0x32,0x22
000950  2076616c          DCB      0x20,0x76,0x61,0x6c
000954  75653d22          DCB      0x75,0x65,0x3d,0x22
000958  3234222f          DCB      0x32,0x34,0x22,0x2f
00095c  3e0d0a20          DCB      0x3e,0x0d,0x0a,0x20
000960  2020203c          DCB      0x20,0x20,0x20,0x3c
000964  696e7075          DCB      0x69,0x6e,0x70,0x75
000968  74206e61          DCB      0x74,0x20,0x6e,0x61
00096c  6d653d22          DCB      0x6d,0x65,0x3d,0x22
000970  574d4143          DCB      0x57,0x4d,0x41,0x43
000974  33222020          DCB      0x33,0x22,0x20,0x20
000978  74797065          DCB      0x74,0x79,0x70,0x65
00097c  3d227465          DCB      0x3d,0x22,0x74,0x65
000980  78742220          DCB      0x78,0x74,0x22,0x20
000984  73697a65          DCB      0x73,0x69,0x7a,0x65
000988  3d223222          DCB      0x3d,0x22,0x32,0x22
00098c  206d6178          DCB      0x20,0x6d,0x61,0x78
000990  6c656e67          DCB      0x6c,0x65,0x6e,0x67
000994  74683d22          DCB      0x74,0x68,0x3d,0x22
000998  32222076          DCB      0x32,0x22,0x20,0x76
00099c  616c7565          DCB      0x61,0x6c,0x75,0x65
0009a0  3d223643          DCB      0x3d,0x22,0x36,0x43
0009a4  222f3e0d          DCB      0x22,0x2f,0x3e,0x0d
0009a8  0a202020          DCB      0x0a,0x20,0x20,0x20
0009ac  203c696e          DCB      0x20,0x3c,0x69,0x6e
0009b0  70757420          DCB      0x70,0x75,0x74,0x20
0009b4  6e616d65          DCB      0x6e,0x61,0x6d,0x65
0009b8  3d22574d          DCB      0x3d,0x22,0x57,0x4d
0009bc  41433422          DCB      0x41,0x43,0x34,0x22
0009c0  20207479          DCB      0x20,0x20,0x74,0x79
0009c4  70653d22          DCB      0x70,0x65,0x3d,0x22
0009c8  74657874          DCB      0x74,0x65,0x78,0x74
0009cc  22207369          DCB      0x22,0x20,0x73,0x69
0009d0  7a653d22          DCB      0x7a,0x65,0x3d,0x22
0009d4  3222206d          DCB      0x32,0x22,0x20,0x6d
0009d8  61786c65          DCB      0x61,0x78,0x6c,0x65
0009dc  6e677468          DCB      0x6e,0x67,0x74,0x68
0009e0  3d223222          DCB      0x3d,0x22,0x32,0x22
0009e4  2076616c          DCB      0x20,0x76,0x61,0x6c
0009e8  75653d22          DCB      0x75,0x65,0x3d,0x22
0009ec  3734222f          DCB      0x37,0x34,0x22,0x2f
0009f0  3e0d0a20          DCB      0x3e,0x0d,0x0a,0x20
0009f4  2020203c          DCB      0x20,0x20,0x20,0x3c
0009f8  696e7075          DCB      0x69,0x6e,0x70,0x75
0009fc  74206e61          DCB      0x74,0x20,0x6e,0x61
000a00  6d653d22          DCB      0x6d,0x65,0x3d,0x22
000a04  574d4143          DCB      0x57,0x4d,0x41,0x43
000a08  35222020          DCB      0x35,0x22,0x20,0x20
000a0c  74797065          DCB      0x74,0x79,0x70,0x65
000a10  3d227465          DCB      0x3d,0x22,0x74,0x65
000a14  78742220          DCB      0x78,0x74,0x22,0x20
000a18  73697a65          DCB      0x73,0x69,0x7a,0x65
000a1c  3d223222          DCB      0x3d,0x22,0x32,0x22
000a20  206d6178          DCB      0x20,0x6d,0x61,0x78
000a24  6c656e67          DCB      0x6c,0x65,0x6e,0x67
000a28  74683d22          DCB      0x74,0x68,0x3d,0x22
000a2c  32222076          DCB      0x32,0x22,0x20,0x76
000a30  616c7565          DCB      0x61,0x6c,0x75,0x65
000a34  3d223936          DCB      0x3d,0x22,0x39,0x36
000a38  222f3e0d          DCB      0x22,0x2f,0x3e,0x0d
000a3c  0a202020          DCB      0x0a,0x20,0x20,0x20
000a40  20a3a8b9          DCB      0x20,0xa3,0xa8,0xb9
000a44  ccbcfeb9          DCB      0xcc,0xbc,0xfe,0xb9
000a48  ccb6a8a3          DCB      0xcc,0xb6,0xa8,0xa3
000a4c  accedeb7          DCB      0xac,0xce,0xde,0xb7
000a50  a8d0deb8          DCB      0xa8,0xd0,0xde,0xb8
000a54  c4293c2f          DCB      0xc4,0x29,0x3c,0x2f
000a58  703e0d0a          DCB      0x70,0x3e,0x0d,0x0a
000a5c  20203c68          DCB      0x20,0x20,0x3c,0x68
000a60  72207369          DCB      0x72,0x20,0x73,0x69
000a64  7a653d33          DCB      0x7a,0x65,0x3d,0x33
000a68  3e0d0a20          DCB      0x3e,0x0d,0x0a,0x20
000a6c  203c703e          DCB      0x20,0x3c,0x70,0x3e
000a70  3c737061          DCB      0x3c,0x73,0x70,0x61
000a74  6e20636c          DCB      0x6e,0x20,0x63,0x6c
000a78  6173733d          DCB      0x61,0x73,0x73,0x3d
000a7c  22535459          DCB      0x22,0x53,0x54,0x59
000a80  4c453222          DCB      0x4c,0x45,0x32,0x22
000a84  3ecbb5c3          DCB      0x3e,0xcb,0xb5,0xc3
000a88  f73ab1be          DCB      0xf7,0x3a,0xb1,0xbe
000a8c  c9e8b1b8          DCB      0xc9,0xe8,0xb1,0xb8
000a90  d6a7b3d6          DCB      0xd6,0xa7,0xb3,0xd6
000a94  d2bbbcfc          DCB      0xd2,0xbb,0xbc,0xfc
000a98  bbd6b8b4          DCB      0xbb,0xd6,0xb8,0xb4
000a9c  b3f6b3a7          DCB      0xb3,0xf6,0xb3,0xa7
000aa0  c9e8d6c3          DCB      0xc9,0xe8,0xd6,0xc3
000aa4  a3acbbd6          DCB      0xa3,0xac,0xbb,0xd6
000aa8  b8b4baf3          DCB      0xb8,0xb4,0xba,0xf3
000aac  c4acc8cf          DCB      0xc4,0xac,0xc8,0xcf
000ab0  ceaa696e          DCB      0xce,0xaa,0x69,0x6e
000ab4  667261d0          DCB      0x66,0x72,0x61,0xd0
000ab8  cdcdf8c2          DCB      0xcd,0xcd,0xf8,0xc2
000abc  e7a3acb9          DCB      0xe7,0xa3,0xac,0xb9
000ac0  d8c1aa41          DCB      0xd8,0xc1,0xaa,0x41
000ac4  50b5c473          DCB      0x50,0xb5,0xc4,0x73
000ac8  736964ce          DCB      0x73,0x69,0x64,0xce
000acc  aa6c696e          DCB      0xaa,0x6c,0x69,0x6e
000ad0  7578a3ac          DCB      0x75,0x78,0xa3,0xac
000ad4  cedebcd3          DCB      0xce,0xde,0xbc,0xd3
000ad8  c3dca1a3          DCB      0xc3,0xdc,0xa1,0xa3
000adc  c4acc8cf          DCB      0xc4,0xac,0xc8,0xcf
000ae0  4950ceaa          DCB      0x49,0x50,0xce,0xaa
000ae4  3139322e          DCB      0x31,0x39,0x32,0x2e
000ae8  3136382e          DCB      0x31,0x36,0x38,0x2e
000aec  312e3130          DCB      0x31,0x2e,0x31,0x30
000af0  a1a33c2f          DCB      0xa1,0xa3,0x3c,0x2f
000af4  7370616e          DCB      0x73,0x70,0x61,0x6e
000af8  3e3c2f70          DCB      0x3e,0x3c,0x2f,0x70
000afc  3e0d0a20          DCB      0x3e,0x0d,0x0a,0x20
000b00  203c6872          DCB      0x20,0x3c,0x68,0x72
000b04  2073697a          DCB      0x20,0x73,0x69,0x7a
000b08  653d333e          DCB      0x65,0x3d,0x33,0x3e
000b0c  0d0a2020          DCB      0x0d,0x0a,0x20,0x20
000b10  3c696e70          DCB      0x3c,0x69,0x6e,0x70
000b14  7574206e          DCB      0x75,0x74,0x20,0x6e
000b18  616d653d          DCB      0x61,0x6d,0x65,0x3d
000b1c  224f4b22          DCB      0x22,0x4f,0x4b,0x22
000b20  20207479          DCB      0x20,0x20,0x74,0x79
000b24  70653d22          DCB      0x70,0x65,0x3d,0x22
000b28  7375626d          DCB      0x73,0x75,0x62,0x6d
000b2c  69742220          DCB      0x69,0x74,0x22,0x20
000b30  76616c75          DCB      0x76,0x61,0x6c,0x75
000b34  653d22b1          DCB      0x65,0x3d,0x22,0xb1
000b38  a3b4e622          DCB      0xa3,0xb4,0xe6,0x22
000b3c  2f3e0d0a          DCB      0x2f,0x3e,0x0d,0x0a
000b40  2020266e          DCB      0x20,0x20,0x26,0x6e
000b44  6273703b          DCB      0x62,0x73,0x70,0x3b
000b48  0d0a3c2f          DCB      0x0d,0x0a,0x3c,0x2f
000b4c  666f726d          DCB      0x66,0x6f,0x72,0x6d
000b50  3e0d0a3c          DCB      0x3e,0x0d,0x0a,0x3c
000b54  68722073          DCB      0x68,0x72,0x20,0x73
000b58  697a653d          DCB      0x69,0x7a,0x65,0x3d
000b5c  2233223e          DCB      0x22,0x33,0x22,0x3e
000b60  0d0a3c66          DCB      0x0d,0x0a,0x3c,0x66
000b64  6f726d20          DCB      0x6f,0x72,0x6d,0x20
000b68  6e616d65          DCB      0x6e,0x61,0x6d,0x65
000b6c  3d22666f          DCB      0x3d,0x22,0x66,0x6f
000b70  726d2220          DCB      0x72,0x6d,0x22,0x20
000b74  6d657468          DCB      0x6d,0x65,0x74,0x68
000b78  6f643d22          DCB      0x6f,0x64,0x3d,0x22
000b7c  47455422          DCB      0x47,0x45,0x54,0x22
000b80  20616374          DCB      0x20,0x61,0x63,0x74
000b84  696f6e3d          DCB      0x69,0x6f,0x6e,0x3d
000b88  224a5f4f          DCB      0x22,0x4a,0x5f,0x4f
000b8c  50454e22          DCB      0x50,0x45,0x4e,0x22
000b90  3e0d0a20          DCB      0x3e,0x0d,0x0a,0x20
000b94  203c696e          DCB      0x20,0x3c,0x69,0x6e
000b98  70757420          DCB      0x70,0x75,0x74,0x20
000b9c  6e616d65          DCB      0x6e,0x61,0x6d,0x65
000ba0  3d224a5f          DCB      0x3d,0x22,0x4a,0x5f
000ba4  4f50454e          DCB      0x4f,0x50,0x45,0x4e
000ba8  22207479          DCB      0x22,0x20,0x74,0x79
000bac  70653d22          DCB      0x70,0x65,0x3d,0x22
000bb0  7375626d          DCB      0x73,0x75,0x62,0x6d
000bb4  69742220          DCB      0x69,0x74,0x22,0x20
000bb8  76616c75          DCB      0x76,0x61,0x6c,0x75
000bbc  653d22bc          DCB      0x65,0x3d,0x22,0xbc
000bc0  ccb5e7c6          DCB      0xcc,0xb5,0xe7,0xc6
000bc4  f7bfaa22          DCB      0xf7,0xbf,0xaa,0x22
000bc8  3e0d0a3c          DCB      0x3e,0x0d,0x0a,0x3c
000bcc  2f666f72          DCB      0x2f,0x66,0x6f,0x72
000bd0  6d3e0d0a          DCB      0x6d,0x3e,0x0d,0x0a
000bd4  3c666f72          DCB      0x3c,0x66,0x6f,0x72
000bd8  6d206e61          DCB      0x6d,0x20,0x6e,0x61
000bdc  6d653d22          DCB      0x6d,0x65,0x3d,0x22
000be0  666f726d          DCB      0x66,0x6f,0x72,0x6d
000be4  22206d65          DCB      0x22,0x20,0x6d,0x65
000be8  74686f64          DCB      0x74,0x68,0x6f,0x64
000bec  3d224745          DCB      0x3d,0x22,0x47,0x45
000bf0  54222061          DCB      0x54,0x22,0x20,0x61
000bf4  6374696f          DCB      0x63,0x74,0x69,0x6f
000bf8  6e3d224a          DCB      0x6e,0x3d,0x22,0x4a
000bfc  5f434c4f          DCB      0x5f,0x43,0x4c,0x4f
000c00  5345223e          DCB      0x53,0x45,0x22,0x3e
000c04  0d0a2020          DCB      0x0d,0x0a,0x20,0x20
000c08  3c696e70          DCB      0x3c,0x69,0x6e,0x70
000c0c  7574206e          DCB      0x75,0x74,0x20,0x6e
000c10  616d653d          DCB      0x61,0x6d,0x65,0x3d
000c14  224a5f4f          DCB      0x22,0x4a,0x5f,0x4f
000c18  50454e22          DCB      0x50,0x45,0x4e,0x22
000c1c  20747970          DCB      0x20,0x74,0x79,0x70
000c20  653d2273          DCB      0x65,0x3d,0x22,0x73
000c24  75626d69          DCB      0x75,0x62,0x6d,0x69
000c28  74222076          DCB      0x74,0x22,0x20,0x76
000c2c  616c7565          DCB      0x61,0x6c,0x75,0x65
000c30  3d22bccc          DCB      0x3d,0x22,0xbc,0xcc
000c34  b5e7c6f7          DCB      0xb5,0xe7,0xc6,0xf7
000c38  b9d8223e          DCB      0xb9,0xd8,0x22,0x3e
000c3c  0d0a3c2f          DCB      0x0d,0x0a,0x3c,0x2f
000c40  666f726d          DCB      0x66,0x6f,0x72,0x6d
000c44  3e0d0a3c          DCB      0x3e,0x0d,0x0a,0x3c
000c48  666f726d          DCB      0x66,0x6f,0x72,0x6d
000c4c  206e616d          DCB      0x20,0x6e,0x61,0x6d
000c50  653d2266          DCB      0x65,0x3d,0x22,0x66
000c54  6f726d22          DCB      0x6f,0x72,0x6d,0x22
000c58  206d6574          DCB      0x20,0x6d,0x65,0x74
000c5c  686f643d          DCB      0x68,0x6f,0x64,0x3d
000c60  22474554          DCB      0x22,0x47,0x45,0x54
000c64  22206163          DCB      0x22,0x20,0x61,0x63
000c68  74696f6e          DCB      0x74,0x69,0x6f,0x6e
000c6c  3d225445          DCB      0x3d,0x22,0x54,0x45
000c70  53545f42          DCB      0x53,0x54,0x5f,0x42
000c74  5554544f          DCB      0x55,0x54,0x54,0x4f
000c78  4e223e0d          DCB      0x4e,0x22,0x3e,0x0d
000c7c  0a20203c          DCB      0x0a,0x20,0x20,0x3c
000c80  696e7075          DCB      0x69,0x6e,0x70,0x75
000c84  74206e61          DCB      0x74,0x20,0x6e,0x61
000c88  6d653d22          DCB      0x6d,0x65,0x3d,0x22
000c8c  54455354          DCB      0x54,0x45,0x53,0x54
000c90  5f425554          DCB      0x5f,0x42,0x55,0x54
000c94  544f4e22          DCB      0x54,0x4f,0x4e,0x22
000c98  20747970          DCB      0x20,0x74,0x79,0x70
000c9c  653d2273          DCB      0x65,0x3d,0x22,0x73
000ca0  75626d69          DCB      0x75,0x62,0x6d,0x69
000ca4  74222076          DCB      0x74,0x22,0x20,0x76
000ca8  616c7565          DCB      0x61,0x6c,0x75,0x65
000cac  3d225445          DCB      0x3d,0x22,0x54,0x45
000cb0  53545f42          DCB      0x53,0x54,0x5f,0x42
000cb4  5554544f          DCB      0x55,0x54,0x54,0x4f
000cb8  4e223e0d          DCB      0x4e,0x22,0x3e,0x0d
000cbc  0a3c2f66          DCB      0x0a,0x3c,0x2f,0x66
000cc0  6f726d3e          DCB      0x6f,0x72,0x6d,0x3e
000cc4  0d0a0d0a          DCB      0x0d,0x0a,0x0d,0x0a
000cc8  3c687220          DCB      0x3c,0x68,0x72,0x20
000ccc  73697a65          DCB      0x73,0x69,0x7a,0x65
000cd0  3d223322          DCB      0x3d,0x22,0x33,0x22
000cd4  3e0d0a3c          DCB      0x3e,0x0d,0x0a,0x3c
000cd8  666f726d          DCB      0x66,0x6f,0x72,0x6d
000cdc  206e616d          DCB      0x20,0x6e,0x61,0x6d
000ce0  653d2266          DCB      0x65,0x3d,0x22,0x66
000ce4  6f726d22          DCB      0x6f,0x72,0x6d,0x22
000ce8  206d6574          DCB      0x20,0x6d,0x65,0x74
000cec  686f643d          DCB      0x68,0x6f,0x64,0x3d
000cf0  22474554          DCB      0x22,0x47,0x45,0x54
000cf4  22206163          DCB      0x22,0x20,0x61,0x63
000cf8  74696f6e          DCB      0x74,0x69,0x6f,0x6e
000cfc  3d225245          DCB      0x3d,0x22,0x52,0x45
000d00  5345545f          DCB      0x53,0x45,0x54,0x5f
000d04  53595322          DCB      0x53,0x59,0x53,0x22
000d08  3e0d0a20          DCB      0x3e,0x0d,0x0a,0x20
000d0c  203c696e          DCB      0x20,0x3c,0x69,0x6e
000d10  70757420          DCB      0x70,0x75,0x74,0x20
000d14  6e616d65          DCB      0x6e,0x61,0x6d,0x65
000d18  3d225245          DCB      0x3d,0x22,0x52,0x45
000d1c  5345545f          DCB      0x53,0x45,0x54,0x5f
000d20  53595322          DCB      0x53,0x59,0x53,0x22
000d24  20747970          DCB      0x20,0x74,0x79,0x70
000d28  653d2273          DCB      0x65,0x3d,0x22,0x73
000d2c  75626d69          DCB      0x75,0x62,0x6d,0x69
000d30  74222076          DCB      0x74,0x22,0x20,0x76
000d34  616c7565          DCB      0x61,0x6c,0x75,0x65
000d38  3d22cfb5          DCB      0x3d,0x22,0xcf,0xb5
000d3c  cdb3b8b4          DCB      0xcd,0xb3,0xb8,0xb4
000d40  cebb223e          DCB      0xce,0xbb,0x22,0x3e
000d44  0d0a3c2f          DCB      0x0d,0x0a,0x3c,0x2f
000d48  666f726d          DCB      0x66,0x6f,0x72,0x6d
000d4c  3e0d0a0d          DCB      0x3e,0x0d,0x0a,0x0d
000d50  0a3c7020          DCB      0x0a,0x3c,0x70,0x20
000d54  616c6967          DCB      0x61,0x6c,0x69,0x67
000d58  6e3d6365          DCB      0x6e,0x3d,0x63,0x65
000d5c  6e746572          DCB      0x6e,0x74,0x65,0x72
000d60  3e266e62          DCB      0x3e,0x26,0x6e,0x62
000d64  73703b3c          DCB      0x73,0x70,0x3b,0x3c
000d68  2f703e0d          DCB      0x2f,0x70,0x3e,0x0d
000d6c  0a3c2f62          DCB      0x0a,0x3c,0x2f,0x62
000d70  6f64793e          DCB      0x6f,0x64,0x79,0x3e
000d74  0d0a3c2f          DCB      0x0d,0x0a,0x3c,0x2f
000d78  68746d6c          DCB      0x68,0x74,0x6d,0x6c
000d7c  3e0d0a            DCB      0x3e,0x0d,0x0a
                  test_html
000d7f  3c                DCB      0x3c
000d80  68746d6c          DCB      0x68,0x74,0x6d,0x6c
000d84  3e0d0a3c          DCB      0x3e,0x0d,0x0a,0x3c
000d88  68656164          DCB      0x68,0x65,0x61,0x64
000d8c  3e0d0a3c          DCB      0x3e,0x0d,0x0a,0x3c
000d90  7469746c          DCB      0x74,0x69,0x74,0x6c
000d94  653ecdf8          DCB      0x65,0x3e,0xcd,0xf8
000d98  c2e7b2ce          DCB      0xc2,0xe7,0xb2,0xce
000d9c  cafdc9e8          DCB      0xca,0xfd,0xc9,0xe8
000da0  d6c33c2f          DCB      0xd6,0xc3,0x3c,0x2f
000da4  7469746c          DCB      0x74,0x69,0x74,0x6c
000da8  653e0d0a          DCB      0x65,0x3e,0x0d,0x0a
000dac  3c737479          DCB      0x3c,0x73,0x74,0x79
000db0  6c652074          DCB      0x6c,0x65,0x20,0x74
000db4  7970653d          DCB      0x79,0x70,0x65,0x3d
000db8  22746578          DCB      0x22,0x74,0x65,0x78
000dbc  742f6373          DCB      0x74,0x2f,0x63,0x73
000dc0  73223e0d          DCB      0x73,0x22,0x3e,0x0d
000dc4  0a3c212d          DCB      0x0a,0x3c,0x21,0x2d
000dc8  2d0d0a2e          DCB      0x2d,0x0d,0x0a,0x2e
000dcc  5354594c          DCB      0x53,0x54,0x59,0x4c
000dd0  4532207b          DCB      0x45,0x32,0x20,0x7b
000dd4  636f6c6f          DCB      0x63,0x6f,0x6c,0x6f
000dd8  723a2023          DCB      0x72,0x3a,0x20,0x23
000ddc  46463030          DCB      0x46,0x46,0x30,0x30
000de0  30307d0d          DCB      0x30,0x30,0x7d,0x0d
000de4  0a626f64          DCB      0x0a,0x62,0x6f,0x64
000de8  79207b0d          DCB      0x79,0x20,0x7b,0x0d
000dec  0a096261          DCB      0x0a,0x09,0x62,0x61
000df0  636b6772          DCB      0x63,0x6b,0x67,0x72
000df4  6f756e64          DCB      0x6f,0x75,0x6e,0x64
000df8  2d636f6c          DCB      0x2d,0x63,0x6f,0x6c
000dfc  6f723a20          DCB      0x6f,0x72,0x3a,0x20
000e00  23333339          DCB      0x23,0x33,0x33,0x39
000e04  3946463b          DCB      0x39,0x46,0x46,0x3b
000e08  0d0a7d0d          DCB      0x0d,0x0a,0x7d,0x0d
000e0c  0a2e5354          DCB      0x0a,0x2e,0x53,0x54
000e10  594c4533          DCB      0x59,0x4c,0x45,0x33
000e14  207b636f          DCB      0x20,0x7b,0x63,0x6f
000e18  6c6f723a          DCB      0x6c,0x6f,0x72,0x3a
000e1c  20234646          DCB      0x20,0x23,0x46,0x46
000e20  46464646          DCB      0x46,0x46,0x46,0x46
000e24  7d0d0a2d          DCB      0x7d,0x0d,0x0a,0x2d
000e28  2d3e0d0a          DCB      0x2d,0x3e,0x0d,0x0a
000e2c  3c2f7374          DCB      0x3c,0x2f,0x73,0x74
000e30  796c653e          DCB      0x79,0x6c,0x65,0x3e
000e34  0d0a3c6d          DCB      0x0d,0x0a,0x3c,0x6d
000e38  65746120          DCB      0x65,0x74,0x61,0x20
000e3c  68747470          DCB      0x68,0x74,0x74,0x70
000e40  2d657175          DCB      0x2d,0x65,0x71,0x75
000e44  69763d22          DCB      0x69,0x76,0x3d,0x22
000e48  436f6e74          DCB      0x43,0x6f,0x6e,0x74
000e4c  656e742d          DCB      0x65,0x6e,0x74,0x2d
000e50  54797065          DCB      0x54,0x79,0x70,0x65
000e54  2220636f          DCB      0x22,0x20,0x63,0x6f
000e58  6e74656e          DCB      0x6e,0x74,0x65,0x6e
000e5c  743d2274          DCB      0x74,0x3d,0x22,0x74
000e60  6578742f          DCB      0x65,0x78,0x74,0x2f
000e64  68746d6c          DCB      0x68,0x74,0x6d,0x6c
000e68  3b206368          DCB      0x3b,0x20,0x63,0x68
000e6c  61727365          DCB      0x61,0x72,0x73,0x65
000e70  743d6762          DCB      0x74,0x3d,0x67,0x62
000e74  32333132          DCB      0x32,0x33,0x31,0x32
000e78  223e3c2f          DCB      0x22,0x3e,0x3c,0x2f
000e7c  68656164          DCB      0x68,0x65,0x61,0x64
000e80  3e0d0a3c          DCB      0x3e,0x0d,0x0a,0x3c
000e84  626f6479          DCB      0x62,0x6f,0x64,0x79
000e88  3e0d0a3c          DCB      0x3e,0x0d,0x0a,0x3c
000e8c  68322061          DCB      0x68,0x32,0x20,0x61
000e90  6c69676e          DCB      0x6c,0x69,0x67,0x6e
000e94  3d226c65          DCB      0x3d,0x22,0x6c,0x65
000e98  66742220          DCB      0x66,0x74,0x22,0x20
000e9c  636c6173          DCB      0x63,0x6c,0x61,0x73
000ea0  733d2253          DCB      0x73,0x3d,0x22,0x53
000ea4  54594c45          DCB      0x54,0x59,0x4c,0x45
000ea8  33223e77          DCB      0x33,0x22,0x3e,0x77
000eac  69666920          DCB      0x69,0x66,0x69,0x20
000eb0  776562bf          DCB      0x77,0x65,0x62,0xbf
000eb4  d8d6c6b2          DCB      0xd8,0xd6,0xc6,0xb2
000eb8  e2cad43c          DCB      0xe2,0xca,0xd4,0x3c
000ebc  2f68323e          DCB      0x2f,0x68,0x32,0x3e
000ec0  0d0a3c68          DCB      0x0d,0x0a,0x3c,0x68
000ec4  72207369          DCB      0x72,0x20,0x73,0x69
000ec8  7a653d33          DCB      0x7a,0x65,0x3d,0x33
000ecc  3e0d0a3c          DCB      0x3e,0x0d,0x0a,0x3c
000ed0  666f726d          DCB      0x66,0x6f,0x72,0x6d
000ed4  206e616d          DCB      0x20,0x6e,0x61,0x6d
000ed8  653d2266          DCB      0x65,0x3d,0x22,0x66
000edc  6f726d31          DCB      0x6f,0x72,0x6d,0x31
000ee0  22206d65          DCB      0x22,0x20,0x6d,0x65
000ee4  74686f64          DCB      0x74,0x68,0x6f,0x64
000ee8  3d226765          DCB      0x3d,0x22,0x67,0x65
000eec  74222061          DCB      0x74,0x22,0x20,0x61
000ef0  6374696f          DCB      0x63,0x74,0x69,0x6f
000ef4  6e3d2262          DCB      0x6e,0x3d,0x22,0x62
000ef8  61636b22          DCB      0x61,0x63,0x6b,0x22
000efc  3e0d0a20          DCB      0x3e,0x0d,0x0a,0x20
000f00  203c696e          DCB      0x20,0x3c,0x69,0x6e
000f04  70757420          DCB      0x70,0x75,0x74,0x20
000f08  74797065          DCB      0x74,0x79,0x70,0x65
000f0c  3d227375          DCB      0x3d,0x22,0x73,0x75
000f10  626d6974          DCB      0x62,0x6d,0x69,0x74
000f14  22206e61          DCB      0x22,0x20,0x6e,0x61
000f18  6d653d22          DCB      0x6d,0x65,0x3d,0x22
000f1c  6261636b          DCB      0x62,0x61,0x63,0x6b
000f20  22206964          DCB      0x22,0x20,0x69,0x64
000f24  3d226261          DCB      0x3d,0x22,0x62,0x61
000f28  636b2220          DCB      0x63,0x6b,0x22,0x20
000f2c  76616c75          DCB      0x76,0x61,0x6c,0x75
000f30  653d22ba          DCB      0x65,0x3d,0x22,0xba
000f34  f3cdcb22          DCB      0xf3,0xcd,0xcb,0x22
000f38  3e0d0a3c          DCB      0x3e,0x0d,0x0a,0x3c
000f3c  2f666f72          DCB      0x2f,0x66,0x6f,0x72
000f40  6d3e0d0a          DCB      0x6d,0x3e,0x0d,0x0a
000f44  3c666f72          DCB      0x3c,0x66,0x6f,0x72
000f48  6d206e61          DCB      0x6d,0x20,0x6e,0x61
000f4c  6d653d22          DCB      0x6d,0x65,0x3d,0x22
000f50  666f726d          DCB      0x66,0x6f,0x72,0x6d
000f54  3222206d          DCB      0x32,0x22,0x20,0x6d
000f58  6574686f          DCB      0x65,0x74,0x68,0x6f
000f5c  643d2267          DCB      0x64,0x3d,0x22,0x67
000f60  65742220          DCB      0x65,0x74,0x22,0x20
000f64  61637469          DCB      0x61,0x63,0x74,0x69
000f68  6f6e3d22          DCB      0x6f,0x6e,0x3d,0x22
000f6c  666f7761          DCB      0x66,0x6f,0x77,0x61
000f70  7264223e          DCB      0x72,0x64,0x22,0x3e
000f74  0d0a2020          DCB      0x0d,0x0a,0x20,0x20
000f78  3c696e70          DCB      0x3c,0x69,0x6e,0x70
000f7c  75742074          DCB      0x75,0x74,0x20,0x74
000f80  7970653d          DCB      0x79,0x70,0x65,0x3d
000f84  22737562          DCB      0x22,0x73,0x75,0x62
000f88  6d697422          DCB      0x6d,0x69,0x74,0x22
000f8c  206e616d          DCB      0x20,0x6e,0x61,0x6d
000f90  653d2266          DCB      0x65,0x3d,0x22,0x66
000f94  6f776172          DCB      0x6f,0x77,0x61,0x72
000f98  64222069          DCB      0x64,0x22,0x20,0x69
000f9c  643d2266          DCB      0x64,0x3d,0x22,0x66
000fa0  6f776172          DCB      0x6f,0x77,0x61,0x72
000fa4  64222076          DCB      0x64,0x22,0x20,0x76
000fa8  616c7565          DCB      0x61,0x6c,0x75,0x65
000fac  3d22c7b0          DCB      0x3d,0x22,0xc7,0xb0
000fb0  bdf8223e          DCB      0xbd,0xf8,0x22,0x3e
000fb4  0d0a3c2f          DCB      0x0d,0x0a,0x3c,0x2f
000fb8  666f726d          DCB      0x66,0x6f,0x72,0x6d
000fbc  3e0d0a3c          DCB      0x3e,0x0d,0x0a,0x3c
000fc0  703e266e          DCB      0x70,0x3e,0x26,0x6e
000fc4  6273703b          DCB      0x62,0x73,0x70,0x3b
000fc8  3c2f703e          DCB      0x3c,0x2f,0x70,0x3e
000fcc  0d0a3c2f          DCB      0x0d,0x0a,0x3c,0x2f
000fd0  626f6479          DCB      0x62,0x6f,0x64,0x79
000fd4  3e0d0a3c          DCB      0x3e,0x0d,0x0a,0x3c
000fd8  2f68746d          DCB      0x2f,0x68,0x74,0x6d
000fdc  6c3e              DCB      0x6c,0x3e
                  http_html_hdr
000fde  4854              DCB      0x48,0x54
000fe0  54502f31          DCB      0x54,0x50,0x2f,0x31
000fe4  2e312032          DCB      0x2e,0x31,0x20,0x32
000fe8  3030204f          DCB      0x30,0x30,0x20,0x4f
000fec  4b0d0a43          DCB      0x4b,0x0d,0x0a,0x43
000ff0  6f6e7465          DCB      0x6f,0x6e,0x74,0x65
000ff4  6e742d74          DCB      0x6e,0x74,0x2d,0x74
000ff8  7970653a          DCB      0x79,0x70,0x65,0x3a
000ffc  20746578          DCB      0x20,0x74,0x65,0x78
001000  742f6874          DCB      0x74,0x2f,0x68,0x74
001004  6d6c0d0a          DCB      0x6d,0x6c,0x0d,0x0a
001008  0d0a00            DCB      0x0d,0x0a,0x00

                          AREA ||.data||, DATA, ALIGN=2

                  runtime
                          DCD      0x00000000
                  counter
                          DCD      0x00000000
