; generated by ARM C/C++ Compiler, 4.1 [Build 481]
; commandline ArmCC [--split_sections --debug -c --asm --interleave -o.\obj\sha1-internal.o --depend=.\obj\sha1-internal.d --feedback=.\obj\wifi.fed --cpu=Cortex-M3 --apcs=interwork -O0 -I..\wpa_supplicant-0.7.3\wpa_supplicant-0.7.3\src\crypto -I..\wpa_supplicant-0.7.3\wpa_supplicant-0.7.3\src\utils -I..\wpa_supplicant-0.7.3\wpa_supplicant-0.7.3\wpa_supp_linux_plat -I..\lwIP\src\include -I..\lwIP\port\include -I..\lwIP\src\include\ipv4 -I..\target -I..\netapp -I..\marvel\driver\inc -I..\marvel\wpa\inc -I..\sdio\inc -I..\main -ID:\keilarm\ARM\INC -ID:\keilarm\ARM\INC\ST\STM32F10x -D__MICROLIB -DIEEE8021X_EAPOL -DOS_NO_C_LIB_DEFINES -DCONFIG_PEERKEY -DCONFIG_IEEE80211W -DCONFIG_IEEE80211R -DxCLOSE_WPA_LIMIT --omf_browse=.\obj\sha1-internal.crf ..\wpa_supplicant-0.7.3\wpa_supplicant-0.7.3\src\crypto\sha1-internal.c]
                          THUMB

                          AREA ||i.SHA1Final||, CODE, READONLY, ALIGN=2

                  SHA1Final PROC
;;;278    
;;;279    void SHA1Final(unsigned char digest[20], SHA1_CTX* context)
000000  b57c              PUSH     {r2-r6,lr}
;;;280    {
000002  4606              MOV      r6,r0
000004  460d              MOV      r5,r1
;;;281    	u32 i;
;;;282    	unsigned char finalcount[8];
;;;283    
;;;284    	for (i = 0; i < 8; i++) {
000006  2400              MOVS     r4,#0
000008  e012              B        |L1.48|
                  |L1.10|
;;;285    		finalcount[i] = (unsigned char)
00000a  2c04              CMP      r4,#4
00000c  d201              BCS      |L1.18|
;;;286    			((context->count[(i >= 4 ? 0 : 1)] >>
00000e  2101              MOVS     r1,#1
000010  e000              B        |L1.20|
                  |L1.18|
000012  2100              MOVS     r1,#0
                  |L1.20|
000014  f1050014          ADD      r0,r5,#0x14
000018  f8500021          LDR      r0,[r0,r1,LSL #2]
00001c  f0040103          AND      r1,r4,#3
000020  f1c10103          RSB      r1,r1,#3
000024  00c9              LSLS     r1,r1,#3
000026  40c8              LSRS     r0,r0,r1
000028  b2c0              UXTB     r0,r0
00002a  f80d0004          STRB     r0,[sp,r4]
00002e  1c64              ADDS     r4,r4,#1              ;284
                  |L1.48|
000030  2c08              CMP      r4,#8                 ;284
000032  d3ea              BCC      |L1.10|
;;;287    			  ((3-(i & 3)) * 8) ) & 255);  /* Endian independent */
;;;288    	}
;;;289    	SHA1Update(context, (unsigned char *) "\200", 1);
000034  2201              MOVS     r2,#1
000036  a11e              ADR      r1,|L1.176|
000038  4628              MOV      r0,r5
00003a  f7fffffe          BL       SHA1Update
;;;290    	while ((context->count[0] & 504) != 448) {
00003e  e004              B        |L1.74|
                  |L1.64|
;;;291    		SHA1Update(context, (unsigned char *) "\0", 1);
000040  2201              MOVS     r2,#1
000042  a11c              ADR      r1,|L1.180|
000044  4628              MOV      r0,r5
000046  f7fffffe          BL       SHA1Update
                  |L1.74|
00004a  6968              LDR      r0,[r5,#0x14]         ;290
00004c  f40070fc          AND      r0,r0,#0x1f8          ;290
000050  f5b07fe0          CMP      r0,#0x1c0             ;290
000054  d1f4              BNE      |L1.64|
;;;292    	}
;;;293    	SHA1Update(context, finalcount, 8);  /* Should cause a SHA1Transform()
000056  2208              MOVS     r2,#8
000058  4669              MOV      r1,sp
00005a  4628              MOV      r0,r5
00005c  f7fffffe          BL       SHA1Update
;;;294    					      */
;;;295    	for (i = 0; i < 20; i++) {
000060  2400              MOVS     r4,#0
000062  e00a              B        |L1.122|
                  |L1.100|
;;;296    		digest[i] = (unsigned char)
000064  08a0              LSRS     r0,r4,#2
000066  f8550020          LDR      r0,[r5,r0,LSL #2]
00006a  f0040103          AND      r1,r4,#3
00006e  f1c10103          RSB      r1,r1,#3
000072  00c9              LSLS     r1,r1,#3
000074  40c8              LSRS     r0,r0,r1
000076  5530              STRB     r0,[r6,r4]
000078  1c64              ADDS     r4,r4,#1              ;295
                  |L1.122|
00007a  2c14              CMP      r4,#0x14              ;295
00007c  d3f2              BCC      |L1.100|
;;;297    			((context->state[i >> 2] >> ((3 - (i & 3)) * 8)) &
;;;298    			 255);
;;;299    	}
;;;300    	/* Wipe variables */
;;;301    	i = 0;
00007e  2400              MOVS     r4,#0
;;;302    	os_memset(context->buffer, 0, 64);
000080  2240              MOVS     r2,#0x40
000082  2100              MOVS     r1,#0
000084  f105001c          ADD      r0,r5,#0x1c
000088  f7fffffe          BL       os_memset
;;;303    	os_memset(context->state, 0, 20);
00008c  2214              MOVS     r2,#0x14
00008e  2100              MOVS     r1,#0
000090  4628              MOV      r0,r5
000092  f7fffffe          BL       os_memset
;;;304    	os_memset(context->count, 0, 8);
000096  2208              MOVS     r2,#8
000098  2100              MOVS     r1,#0
00009a  f1050014          ADD      r0,r5,#0x14
00009e  f7fffffe          BL       os_memset
;;;305    	os_memset(finalcount, 0, 8);
0000a2  2208              MOVS     r2,#8
0000a4  2100              MOVS     r1,#0
0000a6  4668              MOV      r0,sp
0000a8  f7fffffe          BL       os_memset
;;;306    }
0000ac  bd7c              POP      {r2-r6,pc}
;;;307    
                          ENDP

0000ae  0000              DCW      0x0000
                  |L1.176|
0000b0  8000              DCB      128,0
0000b2  00                DCB      0
0000b3  00                DCB      0
                  |L1.180|
0000b4  00                DCB      0
0000b5  00                DCB      0
0000b6  00                DCB      0
0000b7  00                DCB      0

                          AREA ||i.SHA1Init||, CODE, READONLY, ALIGN=2

                  SHA1Init PROC
;;;234    
;;;235    void SHA1Init(SHA1_CTX* context)
000000  4907              LDR      r1,|L2.32|
;;;236    {
;;;237    	/* SHA1 initialization constants */
;;;238    	context->state[0] = 0x67452301;
000002  6001              STR      r1,[r0,#0]
;;;239    	context->state[1] = 0xEFCDAB89;
000004  4907              LDR      r1,|L2.36|
000006  6041              STR      r1,[r0,#4]
;;;240    	context->state[2] = 0x98BADCFE;
000008  4905              LDR      r1,|L2.32|
00000a  43c9              MVNS     r1,r1
00000c  6081              STR      r1,[r0,#8]
;;;241    	context->state[3] = 0x10325476;
00000e  4905              LDR      r1,|L2.36|
000010  43c9              MVNS     r1,r1
000012  60c1              STR      r1,[r0,#0xc]
;;;242    	context->state[4] = 0xC3D2E1F0;
000014  4904              LDR      r1,|L2.40|
000016  6101              STR      r1,[r0,#0x10]
;;;243    	context->count[0] = context->count[1] = 0;
000018  2200              MOVS     r2,#0
00001a  6182              STR      r2,[r0,#0x18]
00001c  6142              STR      r2,[r0,#0x14]
;;;244    }
00001e  4770              BX       lr
;;;245    
                          ENDP

                  |L2.32|
                          DCD      0x67452301
                  |L2.36|
                          DCD      0xefcdab89
                  |L2.40|
                          DCD      0xc3d2e1f0

                          AREA ||i.SHA1Transform||, CODE, READONLY, ALIGN=2

                  SHA1Transform PROC
;;;176    
;;;177    void SHA1Transform(u32 state[5], const unsigned char buffer[64])
000000  e92d4ff0          PUSH     {r4-r11,lr}
;;;178    {
000004  b091              SUB      sp,sp,#0x44
000006  4682              MOV      r10,r0
000008  468b              MOV      r11,r1
;;;179    	u32 a, b, c, d, e;
;;;180    	typedef union {
;;;181    		unsigned char c[64];
;;;182    		u32 l[16];
;;;183    	} CHAR64LONG16;
;;;184    	CHAR64LONG16* block;
;;;185    #ifdef SHA1HANDSOFF
;;;186    	CHAR64LONG16 workspace;
;;;187    	block = &workspace;
00000a  ac01              ADD      r4,sp,#4
;;;188    	os_memcpy(block, buffer, 64);
00000c  2240              MOVS     r2,#0x40
00000e  4659              MOV      r1,r11
000010  4620              MOV      r0,r4
000012  f7fffffe          BL       os_memcpy
;;;189    #else
;;;190    	block = (CHAR64LONG16 *) buffer;
;;;191    #endif
;;;192    	/* Copy context->state[] to working vars */
;;;193    	a = state[0];
000016  f8da5000          LDR      r5,[r10,#0]
;;;194    	b = state[1];
00001a  f8da6004          LDR      r6,[r10,#4]
;;;195    	c = state[2];
00001e  f8da7008          LDR      r7,[r10,#8]
;;;196    	d = state[3];
000022  f8da800c          LDR      r8,[r10,#0xc]
;;;197    	e = state[4];
000026  f8da9010          LDR      r9,[r10,#0x10]
;;;198    	/* 4 rounds of 20 operations each. Loop unrolled. */
;;;199    	R0(a,b,c,d,e, 0); R0(e,a,b,c,d, 1); R0(d,e,a,b,c, 2); R0(c,d,e,a,b, 3);
00002a  6820              LDR      r0,[r4,#0]
00002c  0600              LSLS     r0,r0,#24
00002e  6821              LDR      r1,[r4,#0]
000030  ea402011          ORR      r0,r0,r1,LSR #8
000034  f00021ff          AND      r1,r0,#0xff00ff00
000038  6820              LDR      r0,[r4,#0]
00003a  0200              LSLS     r0,r0,#8
00003c  6822              LDR      r2,[r4,#0]
00003e  ea406012          ORR      r0,r0,r2,LSR #24
000042  f00010ff          AND      r0,r0,#0xff00ff
000046  4301              ORRS     r1,r1,r0
000048  ea870008          EOR      r0,r7,r8
00004c  4030              ANDS     r0,r0,r6
00004e  ea800008          EOR      r0,r0,r8
000052  4408              ADD      r0,r0,r1
000054  6021              STR      r1,[r4,#0]
000056  49ff              LDR      r1,|L3.1108|
000058  4408              ADD      r0,r0,r1
00005a  0169              LSLS     r1,r5,#5
00005c  ea4161d5          ORR      r1,r1,r5,LSR #27
000060  4408              ADD      r0,r0,r1
000062  4481              ADD      r9,r9,r0
000064  07b0              LSLS     r0,r6,#30
000066  ea400696          ORR      r6,r0,r6,LSR #2
00006a  6860              LDR      r0,[r4,#4]
00006c  0600              LSLS     r0,r0,#24
00006e  6861              LDR      r1,[r4,#4]
000070  ea402011          ORR      r0,r0,r1,LSR #8
000074  f00021ff          AND      r1,r0,#0xff00ff00
000078  6860              LDR      r0,[r4,#4]
00007a  0200              LSLS     r0,r0,#8
00007c  6862              LDR      r2,[r4,#4]
00007e  ea406012          ORR      r0,r0,r2,LSR #24
000082  f00010ff          AND      r0,r0,#0xff00ff
000086  4301              ORRS     r1,r1,r0
000088  ea860007          EOR      r0,r6,r7
00008c  4028              ANDS     r0,r0,r5
00008e  4078              EORS     r0,r0,r7
000090  4408              ADD      r0,r0,r1
000092  6061              STR      r1,[r4,#4]
000094  49ef              LDR      r1,|L3.1108|
000096  4408              ADD      r0,r0,r1
000098  ea4f1149          LSL      r1,r9,#5
00009c  ea4161d9          ORR      r1,r1,r9,LSR #27
0000a0  4408              ADD      r0,r0,r1
0000a2  4480              ADD      r8,r8,r0
0000a4  07a8              LSLS     r0,r5,#30
0000a6  ea400595          ORR      r5,r0,r5,LSR #2
0000aa  68a0              LDR      r0,[r4,#8]
0000ac  0600              LSLS     r0,r0,#24
0000ae  68a1              LDR      r1,[r4,#8]
0000b0  ea402011          ORR      r0,r0,r1,LSR #8
0000b4  f00021ff          AND      r1,r0,#0xff00ff00
0000b8  68a0              LDR      r0,[r4,#8]
0000ba  0200              LSLS     r0,r0,#8
0000bc  68a2              LDR      r2,[r4,#8]
0000be  ea406012          ORR      r0,r0,r2,LSR #24
0000c2  f00010ff          AND      r0,r0,#0xff00ff
0000c6  4301              ORRS     r1,r1,r0
0000c8  ea850006          EOR      r0,r5,r6
0000cc  ea000009          AND      r0,r0,r9
0000d0  4070              EORS     r0,r0,r6
0000d2  4408              ADD      r0,r0,r1
0000d4  60a1              STR      r1,[r4,#8]
0000d6  49df              LDR      r1,|L3.1108|
0000d8  4408              ADD      r0,r0,r1
0000da  ea4f1148          LSL      r1,r8,#5
0000de  ea4161d8          ORR      r1,r1,r8,LSR #27
0000e2  4408              ADD      r0,r0,r1
0000e4  4407              ADD      r7,r7,r0
0000e6  ea4f7089          LSL      r0,r9,#30
0000ea  ea400999          ORR      r9,r0,r9,LSR #2
0000ee  68e0              LDR      r0,[r4,#0xc]
0000f0  0600              LSLS     r0,r0,#24
0000f2  68e1              LDR      r1,[r4,#0xc]
0000f4  ea402011          ORR      r0,r0,r1,LSR #8
0000f8  f00021ff          AND      r1,r0,#0xff00ff00
0000fc  68e0              LDR      r0,[r4,#0xc]
0000fe  0200              LSLS     r0,r0,#8
000100  68e2              LDR      r2,[r4,#0xc]
000102  ea406012          ORR      r0,r0,r2,LSR #24
000106  f00010ff          AND      r0,r0,#0xff00ff
00010a  4301              ORRS     r1,r1,r0
00010c  ea890005          EOR      r0,r9,r5
000110  ea000008          AND      r0,r0,r8
000114  4068              EORS     r0,r0,r5
000116  4408              ADD      r0,r0,r1
000118  60e1              STR      r1,[r4,#0xc]
00011a  49ce              LDR      r1,|L3.1108|
00011c  4408              ADD      r0,r0,r1
00011e  0179              LSLS     r1,r7,#5
000120  ea4161d7          ORR      r1,r1,r7,LSR #27
000124  4408              ADD      r0,r0,r1
000126  4406              ADD      r6,r6,r0
000128  ea4f7088          LSL      r0,r8,#30
00012c  ea400898          ORR      r8,r0,r8,LSR #2
;;;200    	R0(b,c,d,e,a, 4); R0(a,b,c,d,e, 5); R0(e,a,b,c,d, 6); R0(d,e,a,b,c, 7);
000130  6920              LDR      r0,[r4,#0x10]
000132  0600              LSLS     r0,r0,#24
000134  6921              LDR      r1,[r4,#0x10]
000136  ea402011          ORR      r0,r0,r1,LSR #8
00013a  f00021ff          AND      r1,r0,#0xff00ff00
00013e  6920              LDR      r0,[r4,#0x10]
000140  0200              LSLS     r0,r0,#8
000142  6922              LDR      r2,[r4,#0x10]
000144  ea406012          ORR      r0,r0,r2,LSR #24
000148  f00010ff          AND      r0,r0,#0xff00ff
00014c  4301              ORRS     r1,r1,r0
00014e  ea880009          EOR      r0,r8,r9
000152  4038              ANDS     r0,r0,r7
000154  ea800009          EOR      r0,r0,r9
000158  4408              ADD      r0,r0,r1
00015a  6121              STR      r1,[r4,#0x10]
00015c  49bd              LDR      r1,|L3.1108|
00015e  4408              ADD      r0,r0,r1
000160  0171              LSLS     r1,r6,#5
000162  ea4161d6          ORR      r1,r1,r6,LSR #27
000166  4408              ADD      r0,r0,r1
000168  4405              ADD      r5,r5,r0
00016a  07b8              LSLS     r0,r7,#30
00016c  ea400797          ORR      r7,r0,r7,LSR #2
000170  6960              LDR      r0,[r4,#0x14]
000172  0600              LSLS     r0,r0,#24
000174  6961              LDR      r1,[r4,#0x14]
000176  ea402011          ORR      r0,r0,r1,LSR #8
00017a  f00021ff          AND      r1,r0,#0xff00ff00
00017e  6960              LDR      r0,[r4,#0x14]
000180  0200              LSLS     r0,r0,#8
000182  6962              LDR      r2,[r4,#0x14]
000184  ea406012          ORR      r0,r0,r2,LSR #24
000188  f00010ff          AND      r0,r0,#0xff00ff
00018c  4301              ORRS     r1,r1,r0
00018e  ea870008          EOR      r0,r7,r8
000192  4030              ANDS     r0,r0,r6
000194  ea800008          EOR      r0,r0,r8
000198  4408              ADD      r0,r0,r1
00019a  6161              STR      r1,[r4,#0x14]
00019c  49ad              LDR      r1,|L3.1108|
00019e  4408              ADD      r0,r0,r1
0001a0  0169              LSLS     r1,r5,#5
0001a2  ea4161d5          ORR      r1,r1,r5,LSR #27
0001a6  4408              ADD      r0,r0,r1
0001a8  4481              ADD      r9,r9,r0
0001aa  07b0              LSLS     r0,r6,#30
0001ac  ea400696          ORR      r6,r0,r6,LSR #2
0001b0  69a0              LDR      r0,[r4,#0x18]
0001b2  0600              LSLS     r0,r0,#24
0001b4  69a1              LDR      r1,[r4,#0x18]
0001b6  ea402011          ORR      r0,r0,r1,LSR #8
0001ba  f00021ff          AND      r1,r0,#0xff00ff00
0001be  69a0              LDR      r0,[r4,#0x18]
0001c0  0200              LSLS     r0,r0,#8
0001c2  69a2              LDR      r2,[r4,#0x18]
0001c4  ea406012          ORR      r0,r0,r2,LSR #24
0001c8  f00010ff          AND      r0,r0,#0xff00ff
0001cc  4301              ORRS     r1,r1,r0
0001ce  ea860007          EOR      r0,r6,r7
0001d2  4028              ANDS     r0,r0,r5
0001d4  4078              EORS     r0,r0,r7
0001d6  4408              ADD      r0,r0,r1
0001d8  61a1              STR      r1,[r4,#0x18]
0001da  499e              LDR      r1,|L3.1108|
0001dc  4408              ADD      r0,r0,r1
0001de  ea4f1149          LSL      r1,r9,#5
0001e2  ea4161d9          ORR      r1,r1,r9,LSR #27
0001e6  4408              ADD      r0,r0,r1
0001e8  4480              ADD      r8,r8,r0
0001ea  07a8              LSLS     r0,r5,#30
0001ec  ea400595          ORR      r5,r0,r5,LSR #2
0001f0  69e0              LDR      r0,[r4,#0x1c]
0001f2  0600              LSLS     r0,r0,#24
0001f4  69e1              LDR      r1,[r4,#0x1c]
0001f6  ea402011          ORR      r0,r0,r1,LSR #8
0001fa  f00021ff          AND      r1,r0,#0xff00ff00
0001fe  69e0              LDR      r0,[r4,#0x1c]
000200  0200              LSLS     r0,r0,#8
000202  69e2              LDR      r2,[r4,#0x1c]
000204  ea406012          ORR      r0,r0,r2,LSR #24
000208  f00010ff          AND      r0,r0,#0xff00ff
00020c  4301              ORRS     r1,r1,r0
00020e  ea850006          EOR      r0,r5,r6
000212  ea000009          AND      r0,r0,r9
000216  4070              EORS     r0,r0,r6
000218  4408              ADD      r0,r0,r1
00021a  61e1              STR      r1,[r4,#0x1c]
00021c  498d              LDR      r1,|L3.1108|
00021e  4408              ADD      r0,r0,r1
000220  ea4f1148          LSL      r1,r8,#5
000224  ea4161d8          ORR      r1,r1,r8,LSR #27
000228  4408              ADD      r0,r0,r1
00022a  4407              ADD      r7,r7,r0
00022c  ea4f7089          LSL      r0,r9,#30
000230  ea400999          ORR      r9,r0,r9,LSR #2
;;;201    	R0(c,d,e,a,b, 8); R0(b,c,d,e,a, 9); R0(a,b,c,d,e,10); R0(e,a,b,c,d,11);
000234  6a20              LDR      r0,[r4,#0x20]
000236  0600              LSLS     r0,r0,#24
000238  6a21              LDR      r1,[r4,#0x20]
00023a  ea402011          ORR      r0,r0,r1,LSR #8
00023e  f00021ff          AND      r1,r0,#0xff00ff00
000242  6a20              LDR      r0,[r4,#0x20]
000244  0200              LSLS     r0,r0,#8
000246  6a22              LDR      r2,[r4,#0x20]
000248  ea406012          ORR      r0,r0,r2,LSR #24
00024c  f00010ff          AND      r0,r0,#0xff00ff
000250  4301              ORRS     r1,r1,r0
000252  ea890005          EOR      r0,r9,r5
000256  ea000008          AND      r0,r0,r8
00025a  4068              EORS     r0,r0,r5
00025c  4408              ADD      r0,r0,r1
00025e  6221              STR      r1,[r4,#0x20]
000260  497c              LDR      r1,|L3.1108|
000262  4408              ADD      r0,r0,r1
000264  0179              LSLS     r1,r7,#5
000266  ea4161d7          ORR      r1,r1,r7,LSR #27
00026a  4408              ADD      r0,r0,r1
00026c  4406              ADD      r6,r6,r0
00026e  ea4f7088          LSL      r0,r8,#30
000272  ea400898          ORR      r8,r0,r8,LSR #2
000276  6a60              LDR      r0,[r4,#0x24]
000278  0600              LSLS     r0,r0,#24
00027a  6a61              LDR      r1,[r4,#0x24]
00027c  ea402011          ORR      r0,r0,r1,LSR #8
000280  f00021ff          AND      r1,r0,#0xff00ff00
000284  6a60              LDR      r0,[r4,#0x24]
000286  0200              LSLS     r0,r0,#8
000288  6a62              LDR      r2,[r4,#0x24]
00028a  ea406012          ORR      r0,r0,r2,LSR #24
00028e  f00010ff          AND      r0,r0,#0xff00ff
000292  4301              ORRS     r1,r1,r0
000294  ea880009          EOR      r0,r8,r9
000298  4038              ANDS     r0,r0,r7
00029a  ea800009          EOR      r0,r0,r9
00029e  4408              ADD      r0,r0,r1
0002a0  6261              STR      r1,[r4,#0x24]
0002a2  496c              LDR      r1,|L3.1108|
0002a4  4408              ADD      r0,r0,r1
0002a6  0171              LSLS     r1,r6,#5
0002a8  ea4161d6          ORR      r1,r1,r6,LSR #27
0002ac  4408              ADD      r0,r0,r1
0002ae  4405              ADD      r5,r5,r0
0002b0  07b8              LSLS     r0,r7,#30
0002b2  ea400797          ORR      r7,r0,r7,LSR #2
0002b6  6aa0              LDR      r0,[r4,#0x28]
0002b8  0600              LSLS     r0,r0,#24
0002ba  6aa1              LDR      r1,[r4,#0x28]
0002bc  ea402011          ORR      r0,r0,r1,LSR #8
0002c0  f00021ff          AND      r1,r0,#0xff00ff00
0002c4  6aa0              LDR      r0,[r4,#0x28]
0002c6  0200              LSLS     r0,r0,#8
0002c8  6aa2              LDR      r2,[r4,#0x28]
0002ca  ea406012          ORR      r0,r0,r2,LSR #24
0002ce  f00010ff          AND      r0,r0,#0xff00ff
0002d2  4301              ORRS     r1,r1,r0
0002d4  ea870008          EOR      r0,r7,r8
0002d8  4030              ANDS     r0,r0,r6
0002da  ea800008          EOR      r0,r0,r8
0002de  4408              ADD      r0,r0,r1
0002e0  62a1              STR      r1,[r4,#0x28]
0002e2  495c              LDR      r1,|L3.1108|
0002e4  4408              ADD      r0,r0,r1
0002e6  0169              LSLS     r1,r5,#5
0002e8  ea4161d5          ORR      r1,r1,r5,LSR #27
0002ec  4408              ADD      r0,r0,r1
0002ee  4481              ADD      r9,r9,r0
0002f0  07b0              LSLS     r0,r6,#30
0002f2  ea400696          ORR      r6,r0,r6,LSR #2
0002f6  6ae0              LDR      r0,[r4,#0x2c]
0002f8  0600              LSLS     r0,r0,#24
0002fa  6ae1              LDR      r1,[r4,#0x2c]
0002fc  ea402011          ORR      r0,r0,r1,LSR #8
000300  f00021ff          AND      r1,r0,#0xff00ff00
000304  6ae0              LDR      r0,[r4,#0x2c]
000306  0200              LSLS     r0,r0,#8
000308  6ae2              LDR      r2,[r4,#0x2c]
00030a  ea406012          ORR      r0,r0,r2,LSR #24
00030e  f00010ff          AND      r0,r0,#0xff00ff
000312  4301              ORRS     r1,r1,r0
000314  ea860007          EOR      r0,r6,r7
000318  4028              ANDS     r0,r0,r5
00031a  4078              EORS     r0,r0,r7
00031c  4408              ADD      r0,r0,r1
00031e  62e1              STR      r1,[r4,#0x2c]
000320  494c              LDR      r1,|L3.1108|
000322  4408              ADD      r0,r0,r1
000324  ea4f1149          LSL      r1,r9,#5
000328  ea4161d9          ORR      r1,r1,r9,LSR #27
00032c  4408              ADD      r0,r0,r1
00032e  4480              ADD      r8,r8,r0
000330  07a8              LSLS     r0,r5,#30
000332  ea400595          ORR      r5,r0,r5,LSR #2
;;;202    	R0(d,e,a,b,c,12); R0(c,d,e,a,b,13); R0(b,c,d,e,a,14); R0(a,b,c,d,e,15);
000336  6b20              LDR      r0,[r4,#0x30]
000338  0600              LSLS     r0,r0,#24
00033a  6b21              LDR      r1,[r4,#0x30]
00033c  ea402011          ORR      r0,r0,r1,LSR #8
000340  f00021ff          AND      r1,r0,#0xff00ff00
000344  6b20              LDR      r0,[r4,#0x30]
000346  0200              LSLS     r0,r0,#8
000348  6b22              LDR      r2,[r4,#0x30]
00034a  ea406012          ORR      r0,r0,r2,LSR #24
00034e  f00010ff          AND      r0,r0,#0xff00ff
000352  4301              ORRS     r1,r1,r0
000354  ea850006          EOR      r0,r5,r6
000358  ea000009          AND      r0,r0,r9
00035c  4070              EORS     r0,r0,r6
00035e  4408              ADD      r0,r0,r1
000360  6321              STR      r1,[r4,#0x30]
000362  493c              LDR      r1,|L3.1108|
000364  4408              ADD      r0,r0,r1
000366  ea4f1148          LSL      r1,r8,#5
00036a  ea4161d8          ORR      r1,r1,r8,LSR #27
00036e  4408              ADD      r0,r0,r1
000370  4407              ADD      r7,r7,r0
000372  ea4f7089          LSL      r0,r9,#30
000376  ea400999          ORR      r9,r0,r9,LSR #2
00037a  6b60              LDR      r0,[r4,#0x34]
00037c  0600              LSLS     r0,r0,#24
00037e  6b61              LDR      r1,[r4,#0x34]
000380  ea402011          ORR      r0,r0,r1,LSR #8
000384  f00021ff          AND      r1,r0,#0xff00ff00
000388  6b60              LDR      r0,[r4,#0x34]
00038a  0200              LSLS     r0,r0,#8
00038c  6b62              LDR      r2,[r4,#0x34]
00038e  ea406012          ORR      r0,r0,r2,LSR #24
000392  f00010ff          AND      r0,r0,#0xff00ff
000396  4301              ORRS     r1,r1,r0
000398  ea890005          EOR      r0,r9,r5
00039c  ea000008          AND      r0,r0,r8
0003a0  4068              EORS     r0,r0,r5
0003a2  4408              ADD      r0,r0,r1
0003a4  6361              STR      r1,[r4,#0x34]
0003a6  492b              LDR      r1,|L3.1108|
0003a8  4408              ADD      r0,r0,r1
0003aa  0179              LSLS     r1,r7,#5
0003ac  ea4161d7          ORR      r1,r1,r7,LSR #27
0003b0  4408              ADD      r0,r0,r1
0003b2  4406              ADD      r6,r6,r0
0003b4  ea4f7088          LSL      r0,r8,#30
0003b8  ea400898          ORR      r8,r0,r8,LSR #2
0003bc  6ba0              LDR      r0,[r4,#0x38]
0003be  0600              LSLS     r0,r0,#24
0003c0  6ba1              LDR      r1,[r4,#0x38]
0003c2  ea402011          ORR      r0,r0,r1,LSR #8
0003c6  f00021ff          AND      r1,r0,#0xff00ff00
0003ca  6ba0              LDR      r0,[r4,#0x38]
0003cc  0200              LSLS     r0,r0,#8
0003ce  6ba2              LDR      r2,[r4,#0x38]
0003d0  ea406012          ORR      r0,r0,r2,LSR #24
0003d4  f00010ff          AND      r0,r0,#0xff00ff
0003d8  4301              ORRS     r1,r1,r0
0003da  ea880009          EOR      r0,r8,r9
0003de  4038              ANDS     r0,r0,r7
0003e0  ea800009          EOR      r0,r0,r9
0003e4  4408              ADD      r0,r0,r1
0003e6  63a1              STR      r1,[r4,#0x38]
0003e8  491a              LDR      r1,|L3.1108|
0003ea  4408              ADD      r0,r0,r1
0003ec  0171              LSLS     r1,r6,#5
0003ee  ea4161d6          ORR      r1,r1,r6,LSR #27
0003f2  4408              ADD      r0,r0,r1
0003f4  4405              ADD      r5,r5,r0
0003f6  07b8              LSLS     r0,r7,#30
0003f8  ea400797          ORR      r7,r0,r7,LSR #2
0003fc  6be0              LDR      r0,[r4,#0x3c]
0003fe  0600              LSLS     r0,r0,#24
000400  6be1              LDR      r1,[r4,#0x3c]
000402  ea402011          ORR      r0,r0,r1,LSR #8
000406  f00021ff          AND      r1,r0,#0xff00ff00
00040a  6be0              LDR      r0,[r4,#0x3c]
00040c  0200              LSLS     r0,r0,#8
00040e  6be2              LDR      r2,[r4,#0x3c]
000410  ea406012          ORR      r0,r0,r2,LSR #24
000414  f00010ff          AND      r0,r0,#0xff00ff
000418  4301              ORRS     r1,r1,r0
00041a  ea870008          EOR      r0,r7,r8
00041e  4030              ANDS     r0,r0,r6
000420  ea800008          EOR      r0,r0,r8
000424  4408              ADD      r0,r0,r1
000426  63e1              STR      r1,[r4,#0x3c]
000428  490a              LDR      r1,|L3.1108|
00042a  4408              ADD      r0,r0,r1
00042c  0169              LSLS     r1,r5,#5
00042e  ea4161d5          ORR      r1,r1,r5,LSR #27
000432  4408              ADD      r0,r0,r1
000434  4481              ADD      r9,r9,r0
000436  07b0              LSLS     r0,r6,#30
000438  ea400696          ORR      r6,r0,r6,LSR #2
;;;203    	R1(e,a,b,c,d,16); R1(d,e,a,b,c,17); R1(c,d,e,a,b,18); R1(b,c,d,e,a,19);
00043c  6a21              LDR      r1,[r4,#0x20]
00043e  6b60              LDR      r0,[r4,#0x34]
000440  4048              EORS     r0,r0,r1
000442  68a1              LDR      r1,[r4,#8]
000444  4048              EORS     r0,r0,r1
000446  6821              LDR      r1,[r4,#0]
000448  4048              EORS     r0,r0,r1
00044a  0041              LSLS     r1,r0,#1
00044c  6a22              LDR      r2,[r4,#0x20]
00044e  6b60              LDR      r0,[r4,#0x34]
000450  4050              EORS     r0,r0,r2
000452  e001              B        |L3.1112|
                  |L3.1108|
                          DCD      0x5a827999
                  |L3.1112|
000458  68a2              LDR      r2,[r4,#8]
00045a  4050              EORS     r0,r0,r2
00045c  6822              LDR      r2,[r4,#0]
00045e  4050              EORS     r0,r0,r2
000460  ea4171d0          ORR      r1,r1,r0,LSR #31
000464  ea860007          EOR      r0,r6,r7
000468  4028              ANDS     r0,r0,r5
00046a  4078              EORS     r0,r0,r7
00046c  4408              ADD      r0,r0,r1
00046e  6021              STR      r1,[r4,#0]
000470  49ff              LDR      r1,|L3.2160|
000472  4408              ADD      r0,r0,r1
000474  ea4f1149          LSL      r1,r9,#5
000478  ea4161d9          ORR      r1,r1,r9,LSR #27
00047c  4408              ADD      r0,r0,r1
00047e  4480              ADD      r8,r8,r0
000480  07a8              LSLS     r0,r5,#30
000482  ea400595          ORR      r5,r0,r5,LSR #2
000486  6a61              LDR      r1,[r4,#0x24]
000488  6ba0              LDR      r0,[r4,#0x38]
00048a  4048              EORS     r0,r0,r1
00048c  68e1              LDR      r1,[r4,#0xc]
00048e  4048              EORS     r0,r0,r1
000490  6861              LDR      r1,[r4,#4]
000492  4048              EORS     r0,r0,r1
000494  0041              LSLS     r1,r0,#1
000496  6a62              LDR      r2,[r4,#0x24]
000498  6ba0              LDR      r0,[r4,#0x38]
00049a  4050              EORS     r0,r0,r2
00049c  68e2              LDR      r2,[r4,#0xc]
00049e  4050              EORS     r0,r0,r2
0004a0  6862              LDR      r2,[r4,#4]
0004a2  4050              EORS     r0,r0,r2
0004a4  ea4171d0          ORR      r1,r1,r0,LSR #31
0004a8  ea850006          EOR      r0,r5,r6
0004ac  ea000009          AND      r0,r0,r9
0004b0  4070              EORS     r0,r0,r6
0004b2  4408              ADD      r0,r0,r1
0004b4  6061              STR      r1,[r4,#4]
0004b6  49ee              LDR      r1,|L3.2160|
0004b8  4408              ADD      r0,r0,r1
0004ba  ea4f1148          LSL      r1,r8,#5
0004be  ea4161d8          ORR      r1,r1,r8,LSR #27
0004c2  4408              ADD      r0,r0,r1
0004c4  4407              ADD      r7,r7,r0
0004c6  ea4f7089          LSL      r0,r9,#30
0004ca  ea400999          ORR      r9,r0,r9,LSR #2
0004ce  6aa1              LDR      r1,[r4,#0x28]
0004d0  6be0              LDR      r0,[r4,#0x3c]
0004d2  4048              EORS     r0,r0,r1
0004d4  6921              LDR      r1,[r4,#0x10]
0004d6  4048              EORS     r0,r0,r1
0004d8  68a1              LDR      r1,[r4,#8]
0004da  4048              EORS     r0,r0,r1
0004dc  0041              LSLS     r1,r0,#1
0004de  6aa2              LDR      r2,[r4,#0x28]
0004e0  6be0              LDR      r0,[r4,#0x3c]
0004e2  4050              EORS     r0,r0,r2
0004e4  6922              LDR      r2,[r4,#0x10]
0004e6  4050              EORS     r0,r0,r2
0004e8  68a2              LDR      r2,[r4,#8]
0004ea  4050              EORS     r0,r0,r2
0004ec  ea4171d0          ORR      r1,r1,r0,LSR #31
0004f0  ea890005          EOR      r0,r9,r5
0004f4  ea000008          AND      r0,r0,r8
0004f8  4068              EORS     r0,r0,r5
0004fa  4408              ADD      r0,r0,r1
0004fc  60a1              STR      r1,[r4,#8]
0004fe  49dc              LDR      r1,|L3.2160|
000500  4408              ADD      r0,r0,r1
000502  0179              LSLS     r1,r7,#5
000504  ea4161d7          ORR      r1,r1,r7,LSR #27
000508  4408              ADD      r0,r0,r1
00050a  4406              ADD      r6,r6,r0
00050c  ea4f7088          LSL      r0,r8,#30
000510  ea400898          ORR      r8,r0,r8,LSR #2
000514  6ae1              LDR      r1,[r4,#0x2c]
000516  6820              LDR      r0,[r4,#0]
000518  4048              EORS     r0,r0,r1
00051a  6961              LDR      r1,[r4,#0x14]
00051c  4048              EORS     r0,r0,r1
00051e  68e1              LDR      r1,[r4,#0xc]
000520  4048              EORS     r0,r0,r1
000522  0041              LSLS     r1,r0,#1
000524  6ae2              LDR      r2,[r4,#0x2c]
000526  6820              LDR      r0,[r4,#0]
000528  4050              EORS     r0,r0,r2
00052a  6962              LDR      r2,[r4,#0x14]
00052c  4050              EORS     r0,r0,r2
00052e  68e2              LDR      r2,[r4,#0xc]
000530  4050              EORS     r0,r0,r2
000532  ea4171d0          ORR      r1,r1,r0,LSR #31
000536  ea880009          EOR      r0,r8,r9
00053a  4038              ANDS     r0,r0,r7
00053c  ea800009          EOR      r0,r0,r9
000540  4408              ADD      r0,r0,r1
000542  60e1              STR      r1,[r4,#0xc]
000544  49ca              LDR      r1,|L3.2160|
000546  4408              ADD      r0,r0,r1
000548  0171              LSLS     r1,r6,#5
00054a  ea4161d6          ORR      r1,r1,r6,LSR #27
00054e  4408              ADD      r0,r0,r1
000550  4405              ADD      r5,r5,r0
000552  07b8              LSLS     r0,r7,#30
000554  ea400797          ORR      r7,r0,r7,LSR #2
;;;204    	R2(a,b,c,d,e,20); R2(e,a,b,c,d,21); R2(d,e,a,b,c,22); R2(c,d,e,a,b,23);
000558  6b21              LDR      r1,[r4,#0x30]
00055a  6860              LDR      r0,[r4,#4]
00055c  4048              EORS     r0,r0,r1
00055e  69a1              LDR      r1,[r4,#0x18]
000560  4048              EORS     r0,r0,r1
000562  6921              LDR      r1,[r4,#0x10]
000564  4048              EORS     r0,r0,r1
000566  0041              LSLS     r1,r0,#1
000568  6b22              LDR      r2,[r4,#0x30]
00056a  6860              LDR      r0,[r4,#4]
00056c  4050              EORS     r0,r0,r2
00056e  69a2              LDR      r2,[r4,#0x18]
000570  4050              EORS     r0,r0,r2
000572  6922              LDR      r2,[r4,#0x10]
000574  4050              EORS     r0,r0,r2
000576  ea4171d0          ORR      r1,r1,r0,LSR #31
00057a  ea860007          EOR      r0,r6,r7
00057e  ea800008          EOR      r0,r0,r8
000582  4408              ADD      r0,r0,r1
000584  6121              STR      r1,[r4,#0x10]
000586  49bb              LDR      r1,|L3.2164|
000588  4408              ADD      r0,r0,r1
00058a  0169              LSLS     r1,r5,#5
00058c  ea4161d5          ORR      r1,r1,r5,LSR #27
000590  4408              ADD      r0,r0,r1
000592  4481              ADD      r9,r9,r0
000594  07b0              LSLS     r0,r6,#30
000596  ea400696          ORR      r6,r0,r6,LSR #2
00059a  6b61              LDR      r1,[r4,#0x34]
00059c  68a0              LDR      r0,[r4,#8]
00059e  4048              EORS     r0,r0,r1
0005a0  69e1              LDR      r1,[r4,#0x1c]
0005a2  4048              EORS     r0,r0,r1
0005a4  6961              LDR      r1,[r4,#0x14]
0005a6  4048              EORS     r0,r0,r1
0005a8  0041              LSLS     r1,r0,#1
0005aa  6b62              LDR      r2,[r4,#0x34]
0005ac  68a0              LDR      r0,[r4,#8]
0005ae  4050              EORS     r0,r0,r2
0005b0  69e2              LDR      r2,[r4,#0x1c]
0005b2  4050              EORS     r0,r0,r2
0005b4  6962              LDR      r2,[r4,#0x14]
0005b6  4050              EORS     r0,r0,r2
0005b8  ea4171d0          ORR      r1,r1,r0,LSR #31
0005bc  ea850006          EOR      r0,r5,r6
0005c0  4078              EORS     r0,r0,r7
0005c2  4408              ADD      r0,r0,r1
0005c4  6161              STR      r1,[r4,#0x14]
0005c6  49ab              LDR      r1,|L3.2164|
0005c8  4408              ADD      r0,r0,r1
0005ca  ea4f1149          LSL      r1,r9,#5
0005ce  ea4161d9          ORR      r1,r1,r9,LSR #27
0005d2  4408              ADD      r0,r0,r1
0005d4  4480              ADD      r8,r8,r0
0005d6  07a8              LSLS     r0,r5,#30
0005d8  ea400595          ORR      r5,r0,r5,LSR #2
0005dc  6ba1              LDR      r1,[r4,#0x38]
0005de  68e0              LDR      r0,[r4,#0xc]
0005e0  4048              EORS     r0,r0,r1
0005e2  6a21              LDR      r1,[r4,#0x20]
0005e4  4048              EORS     r0,r0,r1
0005e6  69a1              LDR      r1,[r4,#0x18]
0005e8  4048              EORS     r0,r0,r1
0005ea  0041              LSLS     r1,r0,#1
0005ec  6ba2              LDR      r2,[r4,#0x38]
0005ee  68e0              LDR      r0,[r4,#0xc]
0005f0  4050              EORS     r0,r0,r2
0005f2  6a22              LDR      r2,[r4,#0x20]
0005f4  4050              EORS     r0,r0,r2
0005f6  69a2              LDR      r2,[r4,#0x18]
0005f8  4050              EORS     r0,r0,r2
0005fa  ea4171d0          ORR      r1,r1,r0,LSR #31
0005fe  ea890005          EOR      r0,r9,r5
000602  4070              EORS     r0,r0,r6
000604  4408              ADD      r0,r0,r1
000606  61a1              STR      r1,[r4,#0x18]
000608  499a              LDR      r1,|L3.2164|
00060a  4408              ADD      r0,r0,r1
00060c  ea4f1148          LSL      r1,r8,#5
000610  ea4161d8          ORR      r1,r1,r8,LSR #27
000614  4408              ADD      r0,r0,r1
000616  4407              ADD      r7,r7,r0
000618  ea4f7089          LSL      r0,r9,#30
00061c  ea400999          ORR      r9,r0,r9,LSR #2
000620  6be1              LDR      r1,[r4,#0x3c]
000622  6920              LDR      r0,[r4,#0x10]
000624  4048              EORS     r0,r0,r1
000626  6a61              LDR      r1,[r4,#0x24]
000628  4048              EORS     r0,r0,r1
00062a  69e1              LDR      r1,[r4,#0x1c]
00062c  4048              EORS     r0,r0,r1
00062e  0041              LSLS     r1,r0,#1
000630  6be2              LDR      r2,[r4,#0x3c]
000632  6920              LDR      r0,[r4,#0x10]
000634  4050              EORS     r0,r0,r2
000636  6a62              LDR      r2,[r4,#0x24]
000638  4050              EORS     r0,r0,r2
00063a  69e2              LDR      r2,[r4,#0x1c]
00063c  4050              EORS     r0,r0,r2
00063e  ea4171d0          ORR      r1,r1,r0,LSR #31
000642  ea880009          EOR      r0,r8,r9
000646  4068              EORS     r0,r0,r5
000648  4408              ADD      r0,r0,r1
00064a  61e1              STR      r1,[r4,#0x1c]
00064c  4989              LDR      r1,|L3.2164|
00064e  4408              ADD      r0,r0,r1
000650  0179              LSLS     r1,r7,#5
000652  ea4161d7          ORR      r1,r1,r7,LSR #27
000656  4408              ADD      r0,r0,r1
000658  4406              ADD      r6,r6,r0
00065a  ea4f7088          LSL      r0,r8,#30
00065e  ea400898          ORR      r8,r0,r8,LSR #2
;;;205    	R2(b,c,d,e,a,24); R2(a,b,c,d,e,25); R2(e,a,b,c,d,26); R2(d,e,a,b,c,27);
000662  6821              LDR      r1,[r4,#0]
000664  6960              LDR      r0,[r4,#0x14]
000666  4048              EORS     r0,r0,r1
000668  6aa1              LDR      r1,[r4,#0x28]
00066a  4048              EORS     r0,r0,r1
00066c  6a21              LDR      r1,[r4,#0x20]
00066e  4048              EORS     r0,r0,r1
000670  0041              LSLS     r1,r0,#1
000672  6822              LDR      r2,[r4,#0]
000674  6960              LDR      r0,[r4,#0x14]
000676  4050              EORS     r0,r0,r2
000678  6aa2              LDR      r2,[r4,#0x28]
00067a  4050              EORS     r0,r0,r2
00067c  6a22              LDR      r2,[r4,#0x20]
00067e  4050              EORS     r0,r0,r2
000680  ea4171d0          ORR      r1,r1,r0,LSR #31
000684  ea870008          EOR      r0,r7,r8
000688  ea800009          EOR      r0,r0,r9
00068c  4408              ADD      r0,r0,r1
00068e  6221              STR      r1,[r4,#0x20]
000690  4978              LDR      r1,|L3.2164|
000692  4408              ADD      r0,r0,r1
000694  0171              LSLS     r1,r6,#5
000696  ea4161d6          ORR      r1,r1,r6,LSR #27
00069a  4408              ADD      r0,r0,r1
00069c  4405              ADD      r5,r5,r0
00069e  07b8              LSLS     r0,r7,#30
0006a0  ea400797          ORR      r7,r0,r7,LSR #2
0006a4  6861              LDR      r1,[r4,#4]
0006a6  69a0              LDR      r0,[r4,#0x18]
0006a8  4048              EORS     r0,r0,r1
0006aa  6ae1              LDR      r1,[r4,#0x2c]
0006ac  4048              EORS     r0,r0,r1
0006ae  6a61              LDR      r1,[r4,#0x24]
0006b0  4048              EORS     r0,r0,r1
0006b2  0041              LSLS     r1,r0,#1
0006b4  6862              LDR      r2,[r4,#4]
0006b6  69a0              LDR      r0,[r4,#0x18]
0006b8  4050              EORS     r0,r0,r2
0006ba  6ae2              LDR      r2,[r4,#0x2c]
0006bc  4050              EORS     r0,r0,r2
0006be  6a62              LDR      r2,[r4,#0x24]
0006c0  4050              EORS     r0,r0,r2
0006c2  ea4171d0          ORR      r1,r1,r0,LSR #31
0006c6  ea860007          EOR      r0,r6,r7
0006ca  ea800008          EOR      r0,r0,r8
0006ce  4408              ADD      r0,r0,r1
0006d0  6261              STR      r1,[r4,#0x24]
0006d2  4968              LDR      r1,|L3.2164|
0006d4  4408              ADD      r0,r0,r1
0006d6  0169              LSLS     r1,r5,#5
0006d8  ea4161d5          ORR      r1,r1,r5,LSR #27
0006dc  4408              ADD      r0,r0,r1
0006de  4481              ADD      r9,r9,r0
0006e0  07b0              LSLS     r0,r6,#30
0006e2  ea400696          ORR      r6,r0,r6,LSR #2
0006e6  68a1              LDR      r1,[r4,#8]
0006e8  69e0              LDR      r0,[r4,#0x1c]
0006ea  4048              EORS     r0,r0,r1
0006ec  6b21              LDR      r1,[r4,#0x30]
0006ee  4048              EORS     r0,r0,r1
0006f0  6aa1              LDR      r1,[r4,#0x28]
0006f2  4048              EORS     r0,r0,r1
0006f4  0041              LSLS     r1,r0,#1
0006f6  68a2              LDR      r2,[r4,#8]
0006f8  69e0              LDR      r0,[r4,#0x1c]
0006fa  4050              EORS     r0,r0,r2
0006fc  6b22              LDR      r2,[r4,#0x30]
0006fe  4050              EORS     r0,r0,r2
000700  6aa2              LDR      r2,[r4,#0x28]
000702  4050              EORS     r0,r0,r2
000704  ea4171d0          ORR      r1,r1,r0,LSR #31
000708  ea850006          EOR      r0,r5,r6
00070c  4078              EORS     r0,r0,r7
00070e  4408              ADD      r0,r0,r1
000710  62a1              STR      r1,[r4,#0x28]
000712  4958              LDR      r1,|L3.2164|
000714  4408              ADD      r0,r0,r1
000716  ea4f1149          LSL      r1,r9,#5
00071a  ea4161d9          ORR      r1,r1,r9,LSR #27
00071e  4408              ADD      r0,r0,r1
000720  4480              ADD      r8,r8,r0
000722  07a8              LSLS     r0,r5,#30
000724  ea400595          ORR      r5,r0,r5,LSR #2
000728  68e1              LDR      r1,[r4,#0xc]
00072a  6a20              LDR      r0,[r4,#0x20]
00072c  4048              EORS     r0,r0,r1
00072e  6b61              LDR      r1,[r4,#0x34]
000730  4048              EORS     r0,r0,r1
000732  6ae1              LDR      r1,[r4,#0x2c]
000734  4048              EORS     r0,r0,r1
000736  0041              LSLS     r1,r0,#1
000738  68e2              LDR      r2,[r4,#0xc]
00073a  6a20              LDR      r0,[r4,#0x20]
00073c  4050              EORS     r0,r0,r2
00073e  6b62              LDR      r2,[r4,#0x34]
000740  4050              EORS     r0,r0,r2
000742  6ae2              LDR      r2,[r4,#0x2c]
000744  4050              EORS     r0,r0,r2
000746  ea4171d0          ORR      r1,r1,r0,LSR #31
00074a  ea890005          EOR      r0,r9,r5
00074e  4070              EORS     r0,r0,r6
000750  4408              ADD      r0,r0,r1
000752  62e1              STR      r1,[r4,#0x2c]
000754  4947              LDR      r1,|L3.2164|
000756  4408              ADD      r0,r0,r1
000758  ea4f1148          LSL      r1,r8,#5
00075c  ea4161d8          ORR      r1,r1,r8,LSR #27
000760  4408              ADD      r0,r0,r1
000762  4407              ADD      r7,r7,r0
000764  ea4f7089          LSL      r0,r9,#30
000768  ea400999          ORR      r9,r0,r9,LSR #2
;;;206    	R2(c,d,e,a,b,28); R2(b,c,d,e,a,29); R2(a,b,c,d,e,30); R2(e,a,b,c,d,31);
00076c  6921              LDR      r1,[r4,#0x10]
00076e  6a60              LDR      r0,[r4,#0x24]
000770  4048              EORS     r0,r0,r1
000772  6ba1              LDR      r1,[r4,#0x38]
000774  4048              EORS     r0,r0,r1
000776  6b21              LDR      r1,[r4,#0x30]
000778  4048              EORS     r0,r0,r1
00077a  0041              LSLS     r1,r0,#1
00077c  6922              LDR      r2,[r4,#0x10]
00077e  6a60              LDR      r0,[r4,#0x24]
000780  4050              EORS     r0,r0,r2
000782  6ba2              LDR      r2,[r4,#0x38]
000784  4050              EORS     r0,r0,r2
000786  6b22              LDR      r2,[r4,#0x30]
000788  4050              EORS     r0,r0,r2
00078a  ea4171d0          ORR      r1,r1,r0,LSR #31
00078e  ea880009          EOR      r0,r8,r9
000792  4068              EORS     r0,r0,r5
000794  4408              ADD      r0,r0,r1
000796  6321              STR      r1,[r4,#0x30]
000798  4936              LDR      r1,|L3.2164|
00079a  4408              ADD      r0,r0,r1
00079c  0179              LSLS     r1,r7,#5
00079e  ea4161d7          ORR      r1,r1,r7,LSR #27
0007a2  4408              ADD      r0,r0,r1
0007a4  4406              ADD      r6,r6,r0
0007a6  ea4f7088          LSL      r0,r8,#30
0007aa  ea400898          ORR      r8,r0,r8,LSR #2
0007ae  6961              LDR      r1,[r4,#0x14]
0007b0  6aa0              LDR      r0,[r4,#0x28]
0007b2  4048              EORS     r0,r0,r1
0007b4  6be1              LDR      r1,[r4,#0x3c]
0007b6  4048              EORS     r0,r0,r1
0007b8  6b61              LDR      r1,[r4,#0x34]
0007ba  4048              EORS     r0,r0,r1
0007bc  0041              LSLS     r1,r0,#1
0007be  6962              LDR      r2,[r4,#0x14]
0007c0  6aa0              LDR      r0,[r4,#0x28]
0007c2  4050              EORS     r0,r0,r2
0007c4  6be2              LDR      r2,[r4,#0x3c]
0007c6  4050              EORS     r0,r0,r2
0007c8  6b62              LDR      r2,[r4,#0x34]
0007ca  4050              EORS     r0,r0,r2
0007cc  ea4171d0          ORR      r1,r1,r0,LSR #31
0007d0  ea870008          EOR      r0,r7,r8
0007d4  ea800009          EOR      r0,r0,r9
0007d8  4408              ADD      r0,r0,r1
0007da  6361              STR      r1,[r4,#0x34]
0007dc  4925              LDR      r1,|L3.2164|
0007de  4408              ADD      r0,r0,r1
0007e0  0171              LSLS     r1,r6,#5
0007e2  ea4161d6          ORR      r1,r1,r6,LSR #27
0007e6  4408              ADD      r0,r0,r1
0007e8  4405              ADD      r5,r5,r0
0007ea  07b8              LSLS     r0,r7,#30
0007ec  ea400797          ORR      r7,r0,r7,LSR #2
0007f0  69a1              LDR      r1,[r4,#0x18]
0007f2  6ae0              LDR      r0,[r4,#0x2c]
0007f4  4048              EORS     r0,r0,r1
0007f6  6821              LDR      r1,[r4,#0]
0007f8  4048              EORS     r0,r0,r1
0007fa  6ba1              LDR      r1,[r4,#0x38]
0007fc  4048              EORS     r0,r0,r1
0007fe  0041              LSLS     r1,r0,#1
000800  69a2              LDR      r2,[r4,#0x18]
000802  6ae0              LDR      r0,[r4,#0x2c]
000804  4050              EORS     r0,r0,r2
000806  6822              LDR      r2,[r4,#0]
000808  4050              EORS     r0,r0,r2
00080a  6ba2              LDR      r2,[r4,#0x38]
00080c  4050              EORS     r0,r0,r2
00080e  ea4171d0          ORR      r1,r1,r0,LSR #31
000812  ea860007          EOR      r0,r6,r7
000816  ea800008          EOR      r0,r0,r8
00081a  4408              ADD      r0,r0,r1
00081c  63a1              STR      r1,[r4,#0x38]
00081e  4915              LDR      r1,|L3.2164|
000820  4408              ADD      r0,r0,r1
000822  0169              LSLS     r1,r5,#5
000824  ea4161d5          ORR      r1,r1,r5,LSR #27
000828  4408              ADD      r0,r0,r1
00082a  4481              ADD      r9,r9,r0
00082c  07b0              LSLS     r0,r6,#30
00082e  ea400696          ORR      r6,r0,r6,LSR #2
000832  69e1              LDR      r1,[r4,#0x1c]
000834  6b20              LDR      r0,[r4,#0x30]
000836  4048              EORS     r0,r0,r1
000838  6861              LDR      r1,[r4,#4]
00083a  4048              EORS     r0,r0,r1
00083c  6be1              LDR      r1,[r4,#0x3c]
00083e  4048              EORS     r0,r0,r1
000840  0041              LSLS     r1,r0,#1
000842  69e2              LDR      r2,[r4,#0x1c]
000844  6b20              LDR      r0,[r4,#0x30]
000846  4050              EORS     r0,r0,r2
000848  6862              LDR      r2,[r4,#4]
00084a  4050              EORS     r0,r0,r2
00084c  6be2              LDR      r2,[r4,#0x3c]
00084e  4050              EORS     r0,r0,r2
000850  ea4171d0          ORR      r1,r1,r0,LSR #31
000854  ea850006          EOR      r0,r5,r6
000858  4078              EORS     r0,r0,r7
00085a  4408              ADD      r0,r0,r1
00085c  63e1              STR      r1,[r4,#0x3c]
00085e  4905              LDR      r1,|L3.2164|
000860  4408              ADD      r0,r0,r1
000862  ea4f1149          LSL      r1,r9,#5
000866  ea4161d9          ORR      r1,r1,r9,LSR #27
00086a  4408              ADD      r0,r0,r1
00086c  4480              ADD      r8,r8,r0
00086e  e003              B        |L3.2168|
                  |L3.2160|
                          DCD      0x5a827999
                  |L3.2164|
                          DCD      0x6ed9eba1
                  |L3.2168|
000878  07a8              LSLS     r0,r5,#30
00087a  ea400595          ORR      r5,r0,r5,LSR #2
;;;207    	R2(d,e,a,b,c,32); R2(c,d,e,a,b,33); R2(b,c,d,e,a,34); R2(a,b,c,d,e,35);
00087e  6a21              LDR      r1,[r4,#0x20]
000880  6b60              LDR      r0,[r4,#0x34]
000882  4048              EORS     r0,r0,r1
000884  68a1              LDR      r1,[r4,#8]
000886  4048              EORS     r0,r0,r1
000888  6821              LDR      r1,[r4,#0]
00088a  4048              EORS     r0,r0,r1
00088c  0041              LSLS     r1,r0,#1
00088e  6a22              LDR      r2,[r4,#0x20]
000890  6b60              LDR      r0,[r4,#0x34]
000892  4050              EORS     r0,r0,r2
000894  68a2              LDR      r2,[r4,#8]
000896  4050              EORS     r0,r0,r2
000898  6822              LDR      r2,[r4,#0]
00089a  4050              EORS     r0,r0,r2
00089c  ea4171d0          ORR      r1,r1,r0,LSR #31
0008a0  ea890005          EOR      r0,r9,r5
0008a4  4070              EORS     r0,r0,r6
0008a6  4408              ADD      r0,r0,r1
0008a8  6021              STR      r1,[r4,#0]
0008aa  49ff              LDR      r1,|L3.3240|
0008ac  4408              ADD      r0,r0,r1
0008ae  ea4f1148          LSL      r1,r8,#5
0008b2  ea4161d8          ORR      r1,r1,r8,LSR #27
0008b6  4408              ADD      r0,r0,r1
0008b8  4407              ADD      r7,r7,r0
0008ba  ea4f7089          LSL      r0,r9,#30
0008be  ea400999          ORR      r9,r0,r9,LSR #2
0008c2  6a61              LDR      r1,[r4,#0x24]
0008c4  6ba0              LDR      r0,[r4,#0x38]
0008c6  4048              EORS     r0,r0,r1
0008c8  68e1              LDR      r1,[r4,#0xc]
0008ca  4048              EORS     r0,r0,r1
0008cc  6861              LDR      r1,[r4,#4]
0008ce  4048              EORS     r0,r0,r1
0008d0  0041              LSLS     r1,r0,#1
0008d2  6a62              LDR      r2,[r4,#0x24]
0008d4  6ba0              LDR      r0,[r4,#0x38]
0008d6  4050              EORS     r0,r0,r2
0008d8  68e2              LDR      r2,[r4,#0xc]
0008da  4050              EORS     r0,r0,r2
0008dc  6862              LDR      r2,[r4,#4]
0008de  4050              EORS     r0,r0,r2
0008e0  ea4171d0          ORR      r1,r1,r0,LSR #31
0008e4  ea880009          EOR      r0,r8,r9
0008e8  4068              EORS     r0,r0,r5
0008ea  4408              ADD      r0,r0,r1
0008ec  6061              STR      r1,[r4,#4]
0008ee  49ee              LDR      r1,|L3.3240|
0008f0  4408              ADD      r0,r0,r1
0008f2  0179              LSLS     r1,r7,#5
0008f4  ea4161d7          ORR      r1,r1,r7,LSR #27
0008f8  4408              ADD      r0,r0,r1
0008fa  4406              ADD      r6,r6,r0
0008fc  ea4f7088          LSL      r0,r8,#30
000900  ea400898          ORR      r8,r0,r8,LSR #2
000904  6aa1              LDR      r1,[r4,#0x28]
000906  6be0              LDR      r0,[r4,#0x3c]
000908  4048              EORS     r0,r0,r1
00090a  6921              LDR      r1,[r4,#0x10]
00090c  4048              EORS     r0,r0,r1
00090e  68a1              LDR      r1,[r4,#8]
000910  4048              EORS     r0,r0,r1
000912  0041              LSLS     r1,r0,#1
000914  6aa2              LDR      r2,[r4,#0x28]
000916  6be0              LDR      r0,[r4,#0x3c]
000918  4050              EORS     r0,r0,r2
00091a  6922              LDR      r2,[r4,#0x10]
00091c  4050              EORS     r0,r0,r2
00091e  68a2              LDR      r2,[r4,#8]
000920  4050              EORS     r0,r0,r2
000922  ea4171d0          ORR      r1,r1,r0,LSR #31
000926  ea870008          EOR      r0,r7,r8
00092a  ea800009          EOR      r0,r0,r9
00092e  4408              ADD      r0,r0,r1
000930  60a1              STR      r1,[r4,#8]
000932  49dd              LDR      r1,|L3.3240|
000934  4408              ADD      r0,r0,r1
000936  0171              LSLS     r1,r6,#5
000938  ea4161d6          ORR      r1,r1,r6,LSR #27
00093c  4408              ADD      r0,r0,r1
00093e  4405              ADD      r5,r5,r0
000940  07b8              LSLS     r0,r7,#30
000942  ea400797          ORR      r7,r0,r7,LSR #2
000946  6ae1              LDR      r1,[r4,#0x2c]
000948  6820              LDR      r0,[r4,#0]
00094a  4048              EORS     r0,r0,r1
00094c  6961              LDR      r1,[r4,#0x14]
00094e  4048              EORS     r0,r0,r1
000950  68e1              LDR      r1,[r4,#0xc]
000952  4048              EORS     r0,r0,r1
000954  0041              LSLS     r1,r0,#1
000956  6ae2              LDR      r2,[r4,#0x2c]
000958  6820              LDR      r0,[r4,#0]
00095a  4050              EORS     r0,r0,r2
00095c  6962              LDR      r2,[r4,#0x14]
00095e  4050              EORS     r0,r0,r2
000960  68e2              LDR      r2,[r4,#0xc]
000962  4050              EORS     r0,r0,r2
000964  ea4171d0          ORR      r1,r1,r0,LSR #31
000968  ea860007          EOR      r0,r6,r7
00096c  ea800008          EOR      r0,r0,r8
000970  4408              ADD      r0,r0,r1
000972  60e1              STR      r1,[r4,#0xc]
000974  49cc              LDR      r1,|L3.3240|
000976  4408              ADD      r0,r0,r1
000978  0169              LSLS     r1,r5,#5
00097a  ea4161d5          ORR      r1,r1,r5,LSR #27
00097e  4408              ADD      r0,r0,r1
000980  4481              ADD      r9,r9,r0
000982  07b0              LSLS     r0,r6,#30
000984  ea400696          ORR      r6,r0,r6,LSR #2
;;;208    	R2(e,a,b,c,d,36); R2(d,e,a,b,c,37); R2(c,d,e,a,b,38); R2(b,c,d,e,a,39);
000988  6b21              LDR      r1,[r4,#0x30]
00098a  6860              LDR      r0,[r4,#4]
00098c  4048              EORS     r0,r0,r1
00098e  69a1              LDR      r1,[r4,#0x18]
000990  4048              EORS     r0,r0,r1
000992  6921              LDR      r1,[r4,#0x10]
000994  4048              EORS     r0,r0,r1
000996  0041              LSLS     r1,r0,#1
000998  6b22              LDR      r2,[r4,#0x30]
00099a  6860              LDR      r0,[r4,#4]
00099c  4050              EORS     r0,r0,r2
00099e  69a2              LDR      r2,[r4,#0x18]
0009a0  4050              EORS     r0,r0,r2
0009a2  6922              LDR      r2,[r4,#0x10]
0009a4  4050              EORS     r0,r0,r2
0009a6  ea4171d0          ORR      r1,r1,r0,LSR #31
0009aa  ea850006          EOR      r0,r5,r6
0009ae  4078              EORS     r0,r0,r7
0009b0  4408              ADD      r0,r0,r1
0009b2  6121              STR      r1,[r4,#0x10]
0009b4  49bc              LDR      r1,|L3.3240|
0009b6  4408              ADD      r0,r0,r1
0009b8  ea4f1149          LSL      r1,r9,#5
0009bc  ea4161d9          ORR      r1,r1,r9,LSR #27
0009c0  4408              ADD      r0,r0,r1
0009c2  4480              ADD      r8,r8,r0
0009c4  07a8              LSLS     r0,r5,#30
0009c6  ea400595          ORR      r5,r0,r5,LSR #2
0009ca  6b61              LDR      r1,[r4,#0x34]
0009cc  68a0              LDR      r0,[r4,#8]
0009ce  4048              EORS     r0,r0,r1
0009d0  69e1              LDR      r1,[r4,#0x1c]
0009d2  4048              EORS     r0,r0,r1
0009d4  6961              LDR      r1,[r4,#0x14]
0009d6  4048              EORS     r0,r0,r1
0009d8  0041              LSLS     r1,r0,#1
0009da  6b62              LDR      r2,[r4,#0x34]
0009dc  68a0              LDR      r0,[r4,#8]
0009de  4050              EORS     r0,r0,r2
0009e0  69e2              LDR      r2,[r4,#0x1c]
0009e2  4050              EORS     r0,r0,r2
0009e4  6962              LDR      r2,[r4,#0x14]
0009e6  4050              EORS     r0,r0,r2
0009e8  ea4171d0          ORR      r1,r1,r0,LSR #31
0009ec  ea890005          EOR      r0,r9,r5
0009f0  4070              EORS     r0,r0,r6
0009f2  4408              ADD      r0,r0,r1
0009f4  6161              STR      r1,[r4,#0x14]
0009f6  49ac              LDR      r1,|L3.3240|
0009f8  4408              ADD      r0,r0,r1
0009fa  ea4f1148          LSL      r1,r8,#5
0009fe  ea4161d8          ORR      r1,r1,r8,LSR #27
000a02  4408              ADD      r0,r0,r1
000a04  4407              ADD      r7,r7,r0
000a06  ea4f7089          LSL      r0,r9,#30
000a0a  ea400999          ORR      r9,r0,r9,LSR #2
000a0e  6ba1              LDR      r1,[r4,#0x38]
000a10  68e0              LDR      r0,[r4,#0xc]
000a12  4048              EORS     r0,r0,r1
000a14  6a21              LDR      r1,[r4,#0x20]
000a16  4048              EORS     r0,r0,r1
000a18  69a1              LDR      r1,[r4,#0x18]
000a1a  4048              EORS     r0,r0,r1
000a1c  0041              LSLS     r1,r0,#1
000a1e  6ba2              LDR      r2,[r4,#0x38]
000a20  68e0              LDR      r0,[r4,#0xc]
000a22  4050              EORS     r0,r0,r2
000a24  6a22              LDR      r2,[r4,#0x20]
000a26  4050              EORS     r0,r0,r2
000a28  69a2              LDR      r2,[r4,#0x18]
000a2a  4050              EORS     r0,r0,r2
000a2c  ea4171d0          ORR      r1,r1,r0,LSR #31
000a30  ea880009          EOR      r0,r8,r9
000a34  4068              EORS     r0,r0,r5
000a36  4408              ADD      r0,r0,r1
000a38  61a1              STR      r1,[r4,#0x18]
000a3a  499b              LDR      r1,|L3.3240|
000a3c  4408              ADD      r0,r0,r1
000a3e  0179              LSLS     r1,r7,#5
000a40  ea4161d7          ORR      r1,r1,r7,LSR #27
000a44  4408              ADD      r0,r0,r1
000a46  4406              ADD      r6,r6,r0
000a48  ea4f7088          LSL      r0,r8,#30
000a4c  ea400898          ORR      r8,r0,r8,LSR #2
000a50  6be1              LDR      r1,[r4,#0x3c]
000a52  6920              LDR      r0,[r4,#0x10]
000a54  4048              EORS     r0,r0,r1
000a56  6a61              LDR      r1,[r4,#0x24]
000a58  4048              EORS     r0,r0,r1
000a5a  69e1              LDR      r1,[r4,#0x1c]
000a5c  4048              EORS     r0,r0,r1
000a5e  0041              LSLS     r1,r0,#1
000a60  6be2              LDR      r2,[r4,#0x3c]
000a62  6920              LDR      r0,[r4,#0x10]
000a64  4050              EORS     r0,r0,r2
000a66  6a62              LDR      r2,[r4,#0x24]
000a68  4050              EORS     r0,r0,r2
000a6a  69e2              LDR      r2,[r4,#0x1c]
000a6c  4050              EORS     r0,r0,r2
000a6e  ea4171d0          ORR      r1,r1,r0,LSR #31
000a72  ea870008          EOR      r0,r7,r8
000a76  ea800009          EOR      r0,r0,r9
000a7a  4408              ADD      r0,r0,r1
000a7c  61e1              STR      r1,[r4,#0x1c]
000a7e  498a              LDR      r1,|L3.3240|
000a80  4408              ADD      r0,r0,r1
000a82  0171              LSLS     r1,r6,#5
000a84  ea4161d6          ORR      r1,r1,r6,LSR #27
000a88  4408              ADD      r0,r0,r1
000a8a  4405              ADD      r5,r5,r0
000a8c  07b8              LSLS     r0,r7,#30
000a8e  ea400797          ORR      r7,r0,r7,LSR #2
;;;209    	R3(a,b,c,d,e,40); R3(e,a,b,c,d,41); R3(d,e,a,b,c,42); R3(c,d,e,a,b,43);
000a92  6821              LDR      r1,[r4,#0]
000a94  6960              LDR      r0,[r4,#0x14]
000a96  4048              EORS     r0,r0,r1
000a98  6aa1              LDR      r1,[r4,#0x28]
000a9a  4048              EORS     r0,r0,r1
000a9c  6a21              LDR      r1,[r4,#0x20]
000a9e  4048              EORS     r0,r0,r1
000aa0  0041              LSLS     r1,r0,#1
000aa2  6822              LDR      r2,[r4,#0]
000aa4  6960              LDR      r0,[r4,#0x14]
000aa6  4050              EORS     r0,r0,r2
000aa8  6aa2              LDR      r2,[r4,#0x28]
000aaa  4050              EORS     r0,r0,r2
000aac  6a22              LDR      r2,[r4,#0x20]
000aae  4050              EORS     r0,r0,r2
000ab0  ea4171d0          ORR      r1,r1,r0,LSR #31
000ab4  ea460007          ORR      r0,r6,r7
000ab8  ea000008          AND      r0,r0,r8
000abc  ea060207          AND      r2,r6,r7
000ac0  4310              ORRS     r0,r0,r2
000ac2  4408              ADD      r0,r0,r1
000ac4  6221              STR      r1,[r4,#0x20]
000ac6  4979              LDR      r1,|L3.3244|
000ac8  4408              ADD      r0,r0,r1
000aca  0169              LSLS     r1,r5,#5
000acc  ea4161d5          ORR      r1,r1,r5,LSR #27
000ad0  4408              ADD      r0,r0,r1
000ad2  4481              ADD      r9,r9,r0
000ad4  07b0              LSLS     r0,r6,#30
000ad6  ea400696          ORR      r6,r0,r6,LSR #2
000ada  6861              LDR      r1,[r4,#4]
000adc  69a0              LDR      r0,[r4,#0x18]
000ade  4048              EORS     r0,r0,r1
000ae0  6ae1              LDR      r1,[r4,#0x2c]
000ae2  4048              EORS     r0,r0,r1
000ae4  6a61              LDR      r1,[r4,#0x24]
000ae6  4048              EORS     r0,r0,r1
000ae8  0041              LSLS     r1,r0,#1
000aea  6862              LDR      r2,[r4,#4]
000aec  69a0              LDR      r0,[r4,#0x18]
000aee  4050              EORS     r0,r0,r2
000af0  6ae2              LDR      r2,[r4,#0x2c]
000af2  4050              EORS     r0,r0,r2
000af4  6a62              LDR      r2,[r4,#0x24]
000af6  4050              EORS     r0,r0,r2
000af8  ea4171d0          ORR      r1,r1,r0,LSR #31
000afc  ea450006          ORR      r0,r5,r6
000b00  4038              ANDS     r0,r0,r7
000b02  ea050206          AND      r2,r5,r6
000b06  4310              ORRS     r0,r0,r2
000b08  4408              ADD      r0,r0,r1
000b0a  6261              STR      r1,[r4,#0x24]
000b0c  4967              LDR      r1,|L3.3244|
000b0e  4408              ADD      r0,r0,r1
000b10  ea4f1149          LSL      r1,r9,#5
000b14  ea4161d9          ORR      r1,r1,r9,LSR #27
000b18  4408              ADD      r0,r0,r1
000b1a  4480              ADD      r8,r8,r0
000b1c  07a8              LSLS     r0,r5,#30
000b1e  ea400595          ORR      r5,r0,r5,LSR #2
000b22  68a1              LDR      r1,[r4,#8]
000b24  69e0              LDR      r0,[r4,#0x1c]
000b26  4048              EORS     r0,r0,r1
000b28  6b21              LDR      r1,[r4,#0x30]
000b2a  4048              EORS     r0,r0,r1
000b2c  6aa1              LDR      r1,[r4,#0x28]
000b2e  4048              EORS     r0,r0,r1
000b30  0041              LSLS     r1,r0,#1
000b32  68a2              LDR      r2,[r4,#8]
000b34  69e0              LDR      r0,[r4,#0x1c]
000b36  4050              EORS     r0,r0,r2
000b38  6b22              LDR      r2,[r4,#0x30]
000b3a  4050              EORS     r0,r0,r2
000b3c  6aa2              LDR      r2,[r4,#0x28]
000b3e  4050              EORS     r0,r0,r2
000b40  ea4171d0          ORR      r1,r1,r0,LSR #31
000b44  ea490005          ORR      r0,r9,r5
000b48  4030              ANDS     r0,r0,r6
000b4a  ea090205          AND      r2,r9,r5
000b4e  4310              ORRS     r0,r0,r2
000b50  4408              ADD      r0,r0,r1
000b52  62a1              STR      r1,[r4,#0x28]
000b54  4955              LDR      r1,|L3.3244|
000b56  4408              ADD      r0,r0,r1
000b58  ea4f1148          LSL      r1,r8,#5
000b5c  ea4161d8          ORR      r1,r1,r8,LSR #27
000b60  4408              ADD      r0,r0,r1
000b62  4407              ADD      r7,r7,r0
000b64  ea4f7089          LSL      r0,r9,#30
000b68  ea400999          ORR      r9,r0,r9,LSR #2
000b6c  68e1              LDR      r1,[r4,#0xc]
000b6e  6a20              LDR      r0,[r4,#0x20]
000b70  4048              EORS     r0,r0,r1
000b72  6b61              LDR      r1,[r4,#0x34]
000b74  4048              EORS     r0,r0,r1
000b76  6ae1              LDR      r1,[r4,#0x2c]
000b78  4048              EORS     r0,r0,r1
000b7a  0041              LSLS     r1,r0,#1
000b7c  68e2              LDR      r2,[r4,#0xc]
000b7e  6a20              LDR      r0,[r4,#0x20]
000b80  4050              EORS     r0,r0,r2
000b82  6b62              LDR      r2,[r4,#0x34]
000b84  4050              EORS     r0,r0,r2
000b86  6ae2              LDR      r2,[r4,#0x2c]
000b88  4050              EORS     r0,r0,r2
000b8a  ea4171d0          ORR      r1,r1,r0,LSR #31
000b8e  ea480009          ORR      r0,r8,r9
000b92  4028              ANDS     r0,r0,r5
000b94  ea080209          AND      r2,r8,r9
000b98  4310              ORRS     r0,r0,r2
000b9a  4408              ADD      r0,r0,r1
000b9c  62e1              STR      r1,[r4,#0x2c]
000b9e  4943              LDR      r1,|L3.3244|
000ba0  4408              ADD      r0,r0,r1
000ba2  0179              LSLS     r1,r7,#5
000ba4  ea4161d7          ORR      r1,r1,r7,LSR #27
000ba8  4408              ADD      r0,r0,r1
000baa  4406              ADD      r6,r6,r0
000bac  ea4f7088          LSL      r0,r8,#30
000bb0  ea400898          ORR      r8,r0,r8,LSR #2
;;;210    	R3(b,c,d,e,a,44); R3(a,b,c,d,e,45); R3(e,a,b,c,d,46); R3(d,e,a,b,c,47);
000bb4  6921              LDR      r1,[r4,#0x10]
000bb6  6a60              LDR      r0,[r4,#0x24]
000bb8  4048              EORS     r0,r0,r1
000bba  6ba1              LDR      r1,[r4,#0x38]
000bbc  4048              EORS     r0,r0,r1
000bbe  6b21              LDR      r1,[r4,#0x30]
000bc0  4048              EORS     r0,r0,r1
000bc2  0041              LSLS     r1,r0,#1
000bc4  6922              LDR      r2,[r4,#0x10]
000bc6  6a60              LDR      r0,[r4,#0x24]
000bc8  4050              EORS     r0,r0,r2
000bca  6ba2              LDR      r2,[r4,#0x38]
000bcc  4050              EORS     r0,r0,r2
000bce  6b22              LDR      r2,[r4,#0x30]
000bd0  4050              EORS     r0,r0,r2
000bd2  ea4171d0          ORR      r1,r1,r0,LSR #31
000bd6  ea470008          ORR      r0,r7,r8
000bda  ea000009          AND      r0,r0,r9
000bde  ea070208          AND      r2,r7,r8
000be2  4310              ORRS     r0,r0,r2
000be4  4408              ADD      r0,r0,r1
000be6  6321              STR      r1,[r4,#0x30]
000be8  4930              LDR      r1,|L3.3244|
000bea  4408              ADD      r0,r0,r1
000bec  0171              LSLS     r1,r6,#5
000bee  ea4161d6          ORR      r1,r1,r6,LSR #27
000bf2  4408              ADD      r0,r0,r1
000bf4  4405              ADD      r5,r5,r0
000bf6  07b8              LSLS     r0,r7,#30
000bf8  ea400797          ORR      r7,r0,r7,LSR #2
000bfc  6961              LDR      r1,[r4,#0x14]
000bfe  6aa0              LDR      r0,[r4,#0x28]
000c00  4048              EORS     r0,r0,r1
000c02  6be1              LDR      r1,[r4,#0x3c]
000c04  4048              EORS     r0,r0,r1
000c06  6b61              LDR      r1,[r4,#0x34]
000c08  4048              EORS     r0,r0,r1
000c0a  0041              LSLS     r1,r0,#1
000c0c  6962              LDR      r2,[r4,#0x14]
000c0e  6aa0              LDR      r0,[r4,#0x28]
000c10  4050              EORS     r0,r0,r2
000c12  6be2              LDR      r2,[r4,#0x3c]
000c14  4050              EORS     r0,r0,r2
000c16  6b62              LDR      r2,[r4,#0x34]
000c18  4050              EORS     r0,r0,r2
000c1a  ea4171d0          ORR      r1,r1,r0,LSR #31
000c1e  ea460007          ORR      r0,r6,r7
000c22  ea000008          AND      r0,r0,r8
000c26  ea060207          AND      r2,r6,r7
000c2a  4310              ORRS     r0,r0,r2
000c2c  4408              ADD      r0,r0,r1
000c2e  6361              STR      r1,[r4,#0x34]
000c30  491e              LDR      r1,|L3.3244|
000c32  4408              ADD      r0,r0,r1
000c34  0169              LSLS     r1,r5,#5
000c36  ea4161d5          ORR      r1,r1,r5,LSR #27
000c3a  4408              ADD      r0,r0,r1
000c3c  4481              ADD      r9,r9,r0
000c3e  07b0              LSLS     r0,r6,#30
000c40  ea400696          ORR      r6,r0,r6,LSR #2
000c44  69a1              LDR      r1,[r4,#0x18]
000c46  6ae0              LDR      r0,[r4,#0x2c]
000c48  4048              EORS     r0,r0,r1
000c4a  6821              LDR      r1,[r4,#0]
000c4c  4048              EORS     r0,r0,r1
000c4e  6ba1              LDR      r1,[r4,#0x38]
000c50  4048              EORS     r0,r0,r1
000c52  0041              LSLS     r1,r0,#1
000c54  69a2              LDR      r2,[r4,#0x18]
000c56  6ae0              LDR      r0,[r4,#0x2c]
000c58  4050              EORS     r0,r0,r2
000c5a  6822              LDR      r2,[r4,#0]
000c5c  4050              EORS     r0,r0,r2
000c5e  6ba2              LDR      r2,[r4,#0x38]
000c60  4050              EORS     r0,r0,r2
000c62  ea4171d0          ORR      r1,r1,r0,LSR #31
000c66  ea450006          ORR      r0,r5,r6
000c6a  4038              ANDS     r0,r0,r7
000c6c  ea050206          AND      r2,r5,r6
000c70  4310              ORRS     r0,r0,r2
000c72  4408              ADD      r0,r0,r1
000c74  63a1              STR      r1,[r4,#0x38]
000c76  490d              LDR      r1,|L3.3244|
000c78  4408              ADD      r0,r0,r1
000c7a  ea4f1149          LSL      r1,r9,#5
000c7e  ea4161d9          ORR      r1,r1,r9,LSR #27
000c82  4408              ADD      r0,r0,r1
000c84  4480              ADD      r8,r8,r0
000c86  07a8              LSLS     r0,r5,#30
000c88  ea400595          ORR      r5,r0,r5,LSR #2
000c8c  69e1              LDR      r1,[r4,#0x1c]
000c8e  6b20              LDR      r0,[r4,#0x30]
000c90  4048              EORS     r0,r0,r1
000c92  6861              LDR      r1,[r4,#4]
000c94  4048              EORS     r0,r0,r1
000c96  6be1              LDR      r1,[r4,#0x3c]
000c98  4048              EORS     r0,r0,r1
000c9a  0041              LSLS     r1,r0,#1
000c9c  69e2              LDR      r2,[r4,#0x1c]
000c9e  6b20              LDR      r0,[r4,#0x30]
000ca0  4050              EORS     r0,r0,r2
000ca2  6862              LDR      r2,[r4,#4]
000ca4  4050              EORS     r0,r0,r2
000ca6  e003              B        |L3.3248|
                  |L3.3240|
                          DCD      0x6ed9eba1
                  |L3.3244|
                          DCD      0x8f1bbcdc
                  |L3.3248|
000cb0  6be2              LDR      r2,[r4,#0x3c]
000cb2  4050              EORS     r0,r0,r2
000cb4  ea4171d0          ORR      r1,r1,r0,LSR #31
000cb8  ea490005          ORR      r0,r9,r5
000cbc  4030              ANDS     r0,r0,r6
000cbe  ea090205          AND      r2,r9,r5
000cc2  4310              ORRS     r0,r0,r2
000cc4  4408              ADD      r0,r0,r1
000cc6  63e1              STR      r1,[r4,#0x3c]
000cc8  49ff              LDR      r1,|L3.4296|
000cca  4408              ADD      r0,r0,r1
000ccc  ea4f1148          LSL      r1,r8,#5
000cd0  ea4161d8          ORR      r1,r1,r8,LSR #27
000cd4  4408              ADD      r0,r0,r1
000cd6  4407              ADD      r7,r7,r0
000cd8  ea4f7089          LSL      r0,r9,#30
000cdc  ea400999          ORR      r9,r0,r9,LSR #2
;;;211    	R3(c,d,e,a,b,48); R3(b,c,d,e,a,49); R3(a,b,c,d,e,50); R3(e,a,b,c,d,51);
000ce0  6a21              LDR      r1,[r4,#0x20]
000ce2  6b60              LDR      r0,[r4,#0x34]
000ce4  4048              EORS     r0,r0,r1
000ce6  68a1              LDR      r1,[r4,#8]
000ce8  4048              EORS     r0,r0,r1
000cea  6821              LDR      r1,[r4,#0]
000cec  4048              EORS     r0,r0,r1
000cee  0041              LSLS     r1,r0,#1
000cf0  6a22              LDR      r2,[r4,#0x20]
000cf2  6b60              LDR      r0,[r4,#0x34]
000cf4  4050              EORS     r0,r0,r2
000cf6  68a2              LDR      r2,[r4,#8]
000cf8  4050              EORS     r0,r0,r2
000cfa  6822              LDR      r2,[r4,#0]
000cfc  4050              EORS     r0,r0,r2
000cfe  ea4171d0          ORR      r1,r1,r0,LSR #31
000d02  ea480009          ORR      r0,r8,r9
000d06  4028              ANDS     r0,r0,r5
000d08  ea080209          AND      r2,r8,r9
000d0c  4310              ORRS     r0,r0,r2
000d0e  4408              ADD      r0,r0,r1
000d10  6021              STR      r1,[r4,#0]
000d12  49ed              LDR      r1,|L3.4296|
000d14  4408              ADD      r0,r0,r1
000d16  0179              LSLS     r1,r7,#5
000d18  ea4161d7          ORR      r1,r1,r7,LSR #27
000d1c  4408              ADD      r0,r0,r1
000d1e  4406              ADD      r6,r6,r0
000d20  ea4f7088          LSL      r0,r8,#30
000d24  ea400898          ORR      r8,r0,r8,LSR #2
000d28  6a61              LDR      r1,[r4,#0x24]
000d2a  6ba0              LDR      r0,[r4,#0x38]
000d2c  4048              EORS     r0,r0,r1
000d2e  68e1              LDR      r1,[r4,#0xc]
000d30  4048              EORS     r0,r0,r1
000d32  6861              LDR      r1,[r4,#4]
000d34  4048              EORS     r0,r0,r1
000d36  0041              LSLS     r1,r0,#1
000d38  6a62              LDR      r2,[r4,#0x24]
000d3a  6ba0              LDR      r0,[r4,#0x38]
000d3c  4050              EORS     r0,r0,r2
000d3e  68e2              LDR      r2,[r4,#0xc]
000d40  4050              EORS     r0,r0,r2
000d42  6862              LDR      r2,[r4,#4]
000d44  4050              EORS     r0,r0,r2
000d46  ea4171d0          ORR      r1,r1,r0,LSR #31
000d4a  ea470008          ORR      r0,r7,r8
000d4e  ea000009          AND      r0,r0,r9
000d52  ea070208          AND      r2,r7,r8
000d56  4310              ORRS     r0,r0,r2
000d58  4408              ADD      r0,r0,r1
000d5a  6061              STR      r1,[r4,#4]
000d5c  49da              LDR      r1,|L3.4296|
000d5e  4408              ADD      r0,r0,r1
000d60  0171              LSLS     r1,r6,#5
000d62  ea4161d6          ORR      r1,r1,r6,LSR #27
000d66  4408              ADD      r0,r0,r1
000d68  4405              ADD      r5,r5,r0
000d6a  07b8              LSLS     r0,r7,#30
000d6c  ea400797          ORR      r7,r0,r7,LSR #2
000d70  6aa1              LDR      r1,[r4,#0x28]
000d72  6be0              LDR      r0,[r4,#0x3c]
000d74  4048              EORS     r0,r0,r1
000d76  6921              LDR      r1,[r4,#0x10]
000d78  4048              EORS     r0,r0,r1
000d7a  68a1              LDR      r1,[r4,#8]
000d7c  4048              EORS     r0,r0,r1
000d7e  0041              LSLS     r1,r0,#1
000d80  6aa2              LDR      r2,[r4,#0x28]
000d82  6be0              LDR      r0,[r4,#0x3c]
000d84  4050              EORS     r0,r0,r2
000d86  6922              LDR      r2,[r4,#0x10]
000d88  4050              EORS     r0,r0,r2
000d8a  68a2              LDR      r2,[r4,#8]
000d8c  4050              EORS     r0,r0,r2
000d8e  ea4171d0          ORR      r1,r1,r0,LSR #31
000d92  ea460007          ORR      r0,r6,r7
000d96  ea000008          AND      r0,r0,r8
000d9a  ea060207          AND      r2,r6,r7
000d9e  4310              ORRS     r0,r0,r2
000da0  4408              ADD      r0,r0,r1
000da2  60a1              STR      r1,[r4,#8]
000da4  49c8              LDR      r1,|L3.4296|
000da6  4408              ADD      r0,r0,r1
000da8  0169              LSLS     r1,r5,#5
000daa  ea4161d5          ORR      r1,r1,r5,LSR #27
000dae  4408              ADD      r0,r0,r1
000db0  4481              ADD      r9,r9,r0
000db2  07b0              LSLS     r0,r6,#30
000db4  ea400696          ORR      r6,r0,r6,LSR #2
000db8  6ae1              LDR      r1,[r4,#0x2c]
000dba  6820              LDR      r0,[r4,#0]
000dbc  4048              EORS     r0,r0,r1
000dbe  6961              LDR      r1,[r4,#0x14]
000dc0  4048              EORS     r0,r0,r1
000dc2  68e1              LDR      r1,[r4,#0xc]
000dc4  4048              EORS     r0,r0,r1
000dc6  0041              LSLS     r1,r0,#1
000dc8  6ae2              LDR      r2,[r4,#0x2c]
000dca  6820              LDR      r0,[r4,#0]
000dcc  4050              EORS     r0,r0,r2
000dce  6962              LDR      r2,[r4,#0x14]
000dd0  4050              EORS     r0,r0,r2
000dd2  68e2              LDR      r2,[r4,#0xc]
000dd4  4050              EORS     r0,r0,r2
000dd6  ea4171d0          ORR      r1,r1,r0,LSR #31
000dda  ea450006          ORR      r0,r5,r6
000dde  4038              ANDS     r0,r0,r7
000de0  ea050206          AND      r2,r5,r6
000de4  4310              ORRS     r0,r0,r2
000de6  4408              ADD      r0,r0,r1
000de8  60e1              STR      r1,[r4,#0xc]
000dea  49b7              LDR      r1,|L3.4296|
000dec  4408              ADD      r0,r0,r1
000dee  ea4f1149          LSL      r1,r9,#5
000df2  ea4161d9          ORR      r1,r1,r9,LSR #27
000df6  4408              ADD      r0,r0,r1
000df8  4480              ADD      r8,r8,r0
000dfa  07a8              LSLS     r0,r5,#30
000dfc  ea400595          ORR      r5,r0,r5,LSR #2
;;;212    	R3(d,e,a,b,c,52); R3(c,d,e,a,b,53); R3(b,c,d,e,a,54); R3(a,b,c,d,e,55);
000e00  6b21              LDR      r1,[r4,#0x30]
000e02  6860              LDR      r0,[r4,#4]
000e04  4048              EORS     r0,r0,r1
000e06  69a1              LDR      r1,[r4,#0x18]
000e08  4048              EORS     r0,r0,r1
000e0a  6921              LDR      r1,[r4,#0x10]
000e0c  4048              EORS     r0,r0,r1
000e0e  0041              LSLS     r1,r0,#1
000e10  6b22              LDR      r2,[r4,#0x30]
000e12  6860              LDR      r0,[r4,#4]
000e14  4050              EORS     r0,r0,r2
000e16  69a2              LDR      r2,[r4,#0x18]
000e18  4050              EORS     r0,r0,r2
000e1a  6922              LDR      r2,[r4,#0x10]
000e1c  4050              EORS     r0,r0,r2
000e1e  ea4171d0          ORR      r1,r1,r0,LSR #31
000e22  ea490005          ORR      r0,r9,r5
000e26  4030              ANDS     r0,r0,r6
000e28  ea090205          AND      r2,r9,r5
000e2c  4310              ORRS     r0,r0,r2
000e2e  4408              ADD      r0,r0,r1
000e30  6121              STR      r1,[r4,#0x10]
000e32  49a5              LDR      r1,|L3.4296|
000e34  4408              ADD      r0,r0,r1
000e36  ea4f1148          LSL      r1,r8,#5
000e3a  ea4161d8          ORR      r1,r1,r8,LSR #27
000e3e  4408              ADD      r0,r0,r1
000e40  4407              ADD      r7,r7,r0
000e42  ea4f7089          LSL      r0,r9,#30
000e46  ea400999          ORR      r9,r0,r9,LSR #2
000e4a  6b61              LDR      r1,[r4,#0x34]
000e4c  68a0              LDR      r0,[r4,#8]
000e4e  4048              EORS     r0,r0,r1
000e50  69e1              LDR      r1,[r4,#0x1c]
000e52  4048              EORS     r0,r0,r1
000e54  6961              LDR      r1,[r4,#0x14]
000e56  4048              EORS     r0,r0,r1
000e58  0041              LSLS     r1,r0,#1
000e5a  6b62              LDR      r2,[r4,#0x34]
000e5c  68a0              LDR      r0,[r4,#8]
000e5e  4050              EORS     r0,r0,r2
000e60  69e2              LDR      r2,[r4,#0x1c]
000e62  4050              EORS     r0,r0,r2
000e64  6962              LDR      r2,[r4,#0x14]
000e66  4050              EORS     r0,r0,r2
000e68  ea4171d0          ORR      r1,r1,r0,LSR #31
000e6c  ea480009          ORR      r0,r8,r9
000e70  4028              ANDS     r0,r0,r5
000e72  ea080209          AND      r2,r8,r9
000e76  4310              ORRS     r0,r0,r2
000e78  4408              ADD      r0,r0,r1
000e7a  6161              STR      r1,[r4,#0x14]
000e7c  4992              LDR      r1,|L3.4296|
000e7e  4408              ADD      r0,r0,r1
000e80  0179              LSLS     r1,r7,#5
000e82  ea4161d7          ORR      r1,r1,r7,LSR #27
000e86  4408              ADD      r0,r0,r1
000e88  4406              ADD      r6,r6,r0
000e8a  ea4f7088          LSL      r0,r8,#30
000e8e  ea400898          ORR      r8,r0,r8,LSR #2
000e92  6ba1              LDR      r1,[r4,#0x38]
000e94  68e0              LDR      r0,[r4,#0xc]
000e96  4048              EORS     r0,r0,r1
000e98  6a21              LDR      r1,[r4,#0x20]
000e9a  4048              EORS     r0,r0,r1
000e9c  69a1              LDR      r1,[r4,#0x18]
000e9e  4048              EORS     r0,r0,r1
000ea0  0041              LSLS     r1,r0,#1
000ea2  6ba2              LDR      r2,[r4,#0x38]
000ea4  68e0              LDR      r0,[r4,#0xc]
000ea6  4050              EORS     r0,r0,r2
000ea8  6a22              LDR      r2,[r4,#0x20]
000eaa  4050              EORS     r0,r0,r2
000eac  69a2              LDR      r2,[r4,#0x18]
000eae  4050              EORS     r0,r0,r2
000eb0  ea4171d0          ORR      r1,r1,r0,LSR #31
000eb4  ea470008          ORR      r0,r7,r8
000eb8  ea000009          AND      r0,r0,r9
000ebc  ea070208          AND      r2,r7,r8
000ec0  4310              ORRS     r0,r0,r2
000ec2  4408              ADD      r0,r0,r1
000ec4  61a1              STR      r1,[r4,#0x18]
000ec6  4980              LDR      r1,|L3.4296|
000ec8  4408              ADD      r0,r0,r1
000eca  0171              LSLS     r1,r6,#5
000ecc  ea4161d6          ORR      r1,r1,r6,LSR #27
000ed0  4408              ADD      r0,r0,r1
000ed2  4405              ADD      r5,r5,r0
000ed4  07b8              LSLS     r0,r7,#30
000ed6  ea400797          ORR      r7,r0,r7,LSR #2
000eda  6be1              LDR      r1,[r4,#0x3c]
000edc  6920              LDR      r0,[r4,#0x10]
000ede  4048              EORS     r0,r0,r1
000ee0  6a61              LDR      r1,[r4,#0x24]
000ee2  4048              EORS     r0,r0,r1
000ee4  69e1              LDR      r1,[r4,#0x1c]
000ee6  4048              EORS     r0,r0,r1
000ee8  0041              LSLS     r1,r0,#1
000eea  6be2              LDR      r2,[r4,#0x3c]
000eec  6920              LDR      r0,[r4,#0x10]
000eee  4050              EORS     r0,r0,r2
000ef0  6a62              LDR      r2,[r4,#0x24]
000ef2  4050              EORS     r0,r0,r2
000ef4  69e2              LDR      r2,[r4,#0x1c]
000ef6  4050              EORS     r0,r0,r2
000ef8  ea4171d0          ORR      r1,r1,r0,LSR #31
000efc  ea460007          ORR      r0,r6,r7
000f00  ea000008          AND      r0,r0,r8
000f04  ea060207          AND      r2,r6,r7
000f08  4310              ORRS     r0,r0,r2
000f0a  4408              ADD      r0,r0,r1
000f0c  61e1              STR      r1,[r4,#0x1c]
000f0e  496e              LDR      r1,|L3.4296|
000f10  4408              ADD      r0,r0,r1
000f12  0169              LSLS     r1,r5,#5
000f14  ea4161d5          ORR      r1,r1,r5,LSR #27
000f18  4408              ADD      r0,r0,r1
000f1a  4481              ADD      r9,r9,r0
000f1c  07b0              LSLS     r0,r6,#30
000f1e  ea400696          ORR      r6,r0,r6,LSR #2
;;;213    	R3(e,a,b,c,d,56); R3(d,e,a,b,c,57); R3(c,d,e,a,b,58); R3(b,c,d,e,a,59);
000f22  6821              LDR      r1,[r4,#0]
000f24  6960              LDR      r0,[r4,#0x14]
000f26  4048              EORS     r0,r0,r1
000f28  6aa1              LDR      r1,[r4,#0x28]
000f2a  4048              EORS     r0,r0,r1
000f2c  6a21              LDR      r1,[r4,#0x20]
000f2e  4048              EORS     r0,r0,r1
000f30  0041              LSLS     r1,r0,#1
000f32  6822              LDR      r2,[r4,#0]
000f34  6960              LDR      r0,[r4,#0x14]
000f36  4050              EORS     r0,r0,r2
000f38  6aa2              LDR      r2,[r4,#0x28]
000f3a  4050              EORS     r0,r0,r2
000f3c  6a22              LDR      r2,[r4,#0x20]
000f3e  4050              EORS     r0,r0,r2
000f40  ea4171d0          ORR      r1,r1,r0,LSR #31
000f44  ea450006          ORR      r0,r5,r6
000f48  4038              ANDS     r0,r0,r7
000f4a  ea050206          AND      r2,r5,r6
000f4e  4310              ORRS     r0,r0,r2
000f50  4408              ADD      r0,r0,r1
000f52  6221              STR      r1,[r4,#0x20]
000f54  495c              LDR      r1,|L3.4296|
000f56  4408              ADD      r0,r0,r1
000f58  ea4f1149          LSL      r1,r9,#5
000f5c  ea4161d9          ORR      r1,r1,r9,LSR #27
000f60  4408              ADD      r0,r0,r1
000f62  4480              ADD      r8,r8,r0
000f64  07a8              LSLS     r0,r5,#30
000f66  ea400595          ORR      r5,r0,r5,LSR #2
000f6a  6861              LDR      r1,[r4,#4]
000f6c  69a0              LDR      r0,[r4,#0x18]
000f6e  4048              EORS     r0,r0,r1
000f70  6ae1              LDR      r1,[r4,#0x2c]
000f72  4048              EORS     r0,r0,r1
000f74  6a61              LDR      r1,[r4,#0x24]
000f76  4048              EORS     r0,r0,r1
000f78  0041              LSLS     r1,r0,#1
000f7a  6862              LDR      r2,[r4,#4]
000f7c  69a0              LDR      r0,[r4,#0x18]
000f7e  4050              EORS     r0,r0,r2
000f80  6ae2              LDR      r2,[r4,#0x2c]
000f82  4050              EORS     r0,r0,r2
000f84  6a62              LDR      r2,[r4,#0x24]
000f86  4050              EORS     r0,r0,r2
000f88  ea4171d0          ORR      r1,r1,r0,LSR #31
000f8c  ea490005          ORR      r0,r9,r5
000f90  4030              ANDS     r0,r0,r6
000f92  ea090205          AND      r2,r9,r5
000f96  4310              ORRS     r0,r0,r2
000f98  4408              ADD      r0,r0,r1
000f9a  6261              STR      r1,[r4,#0x24]
000f9c  494a              LDR      r1,|L3.4296|
000f9e  4408              ADD      r0,r0,r1
000fa0  ea4f1148          LSL      r1,r8,#5
000fa4  ea4161d8          ORR      r1,r1,r8,LSR #27
000fa8  4408              ADD      r0,r0,r1
000faa  4407              ADD      r7,r7,r0
000fac  ea4f7089          LSL      r0,r9,#30
000fb0  ea400999          ORR      r9,r0,r9,LSR #2
000fb4  68a1              LDR      r1,[r4,#8]
000fb6  69e0              LDR      r0,[r4,#0x1c]
000fb8  4048              EORS     r0,r0,r1
000fba  6b21              LDR      r1,[r4,#0x30]
000fbc  4048              EORS     r0,r0,r1
000fbe  6aa1              LDR      r1,[r4,#0x28]
000fc0  4048              EORS     r0,r0,r1
000fc2  0041              LSLS     r1,r0,#1
000fc4  68a2              LDR      r2,[r4,#8]
000fc6  69e0              LDR      r0,[r4,#0x1c]
000fc8  4050              EORS     r0,r0,r2
000fca  6b22              LDR      r2,[r4,#0x30]
000fcc  4050              EORS     r0,r0,r2
000fce  6aa2              LDR      r2,[r4,#0x28]
000fd0  4050              EORS     r0,r0,r2
000fd2  ea4171d0          ORR      r1,r1,r0,LSR #31
000fd6  ea480009          ORR      r0,r8,r9
000fda  4028              ANDS     r0,r0,r5
000fdc  ea080209          AND      r2,r8,r9
000fe0  4310              ORRS     r0,r0,r2
000fe2  4408              ADD      r0,r0,r1
000fe4  62a1              STR      r1,[r4,#0x28]
000fe6  4938              LDR      r1,|L3.4296|
000fe8  4408              ADD      r0,r0,r1
000fea  0179              LSLS     r1,r7,#5
000fec  ea4161d7          ORR      r1,r1,r7,LSR #27
000ff0  4408              ADD      r0,r0,r1
000ff2  4406              ADD      r6,r6,r0
000ff4  ea4f7088          LSL      r0,r8,#30
000ff8  ea400898          ORR      r8,r0,r8,LSR #2
000ffc  68e1              LDR      r1,[r4,#0xc]
000ffe  6a20              LDR      r0,[r4,#0x20]
001000  4048              EORS     r0,r0,r1
001002  6b61              LDR      r1,[r4,#0x34]
001004  4048              EORS     r0,r0,r1
001006  6ae1              LDR      r1,[r4,#0x2c]
001008  4048              EORS     r0,r0,r1
00100a  0041              LSLS     r1,r0,#1
00100c  68e2              LDR      r2,[r4,#0xc]
00100e  6a20              LDR      r0,[r4,#0x20]
001010  4050              EORS     r0,r0,r2
001012  6b62              LDR      r2,[r4,#0x34]
001014  4050              EORS     r0,r0,r2
001016  6ae2              LDR      r2,[r4,#0x2c]
001018  4050              EORS     r0,r0,r2
00101a  ea4171d0          ORR      r1,r1,r0,LSR #31
00101e  ea470008          ORR      r0,r7,r8
001022  ea000009          AND      r0,r0,r9
001026  ea070208          AND      r2,r7,r8
00102a  4310              ORRS     r0,r0,r2
00102c  4408              ADD      r0,r0,r1
00102e  62e1              STR      r1,[r4,#0x2c]
001030  4925              LDR      r1,|L3.4296|
001032  4408              ADD      r0,r0,r1
001034  0171              LSLS     r1,r6,#5
001036  ea4161d6          ORR      r1,r1,r6,LSR #27
00103a  4408              ADD      r0,r0,r1
00103c  4405              ADD      r5,r5,r0
00103e  07b8              LSLS     r0,r7,#30
001040  ea400797          ORR      r7,r0,r7,LSR #2
;;;214    	R4(a,b,c,d,e,60); R4(e,a,b,c,d,61); R4(d,e,a,b,c,62); R4(c,d,e,a,b,63);
001044  6921              LDR      r1,[r4,#0x10]
001046  6a60              LDR      r0,[r4,#0x24]
001048  4048              EORS     r0,r0,r1
00104a  6ba1              LDR      r1,[r4,#0x38]
00104c  4048              EORS     r0,r0,r1
00104e  6b21              LDR      r1,[r4,#0x30]
001050  4048              EORS     r0,r0,r1
001052  0041              LSLS     r1,r0,#1
001054  6922              LDR      r2,[r4,#0x10]
001056  6a60              LDR      r0,[r4,#0x24]
001058  4050              EORS     r0,r0,r2
00105a  6ba2              LDR      r2,[r4,#0x38]
00105c  4050              EORS     r0,r0,r2
00105e  6b22              LDR      r2,[r4,#0x30]
001060  4050              EORS     r0,r0,r2
001062  ea4171d0          ORR      r1,r1,r0,LSR #31
001066  ea860007          EOR      r0,r6,r7
00106a  ea800008          EOR      r0,r0,r8
00106e  4408              ADD      r0,r0,r1
001070  6321              STR      r1,[r4,#0x30]
001072  4916              LDR      r1,|L3.4300|
001074  4408              ADD      r0,r0,r1
001076  0169              LSLS     r1,r5,#5
001078  ea4161d5          ORR      r1,r1,r5,LSR #27
00107c  4408              ADD      r0,r0,r1
00107e  4481              ADD      r9,r9,r0
001080  07b0              LSLS     r0,r6,#30
001082  ea400696          ORR      r6,r0,r6,LSR #2
001086  6961              LDR      r1,[r4,#0x14]
001088  6aa0              LDR      r0,[r4,#0x28]
00108a  4048              EORS     r0,r0,r1
00108c  6be1              LDR      r1,[r4,#0x3c]
00108e  4048              EORS     r0,r0,r1
001090  6b61              LDR      r1,[r4,#0x34]
001092  4048              EORS     r0,r0,r1
001094  0041              LSLS     r1,r0,#1
001096  6962              LDR      r2,[r4,#0x14]
001098  6aa0              LDR      r0,[r4,#0x28]
00109a  4050              EORS     r0,r0,r2
00109c  6be2              LDR      r2,[r4,#0x3c]
00109e  4050              EORS     r0,r0,r2
0010a0  6b62              LDR      r2,[r4,#0x34]
0010a2  4050              EORS     r0,r0,r2
0010a4  ea4171d0          ORR      r1,r1,r0,LSR #31
0010a8  ea850006          EOR      r0,r5,r6
0010ac  4078              EORS     r0,r0,r7
0010ae  4408              ADD      r0,r0,r1
0010b0  6361              STR      r1,[r4,#0x34]
0010b2  4906              LDR      r1,|L3.4300|
0010b4  4408              ADD      r0,r0,r1
0010b6  ea4f1149          LSL      r1,r9,#5
0010ba  ea4161d9          ORR      r1,r1,r9,LSR #27
0010be  4408              ADD      r0,r0,r1
0010c0  4480              ADD      r8,r8,r0
0010c2  07a8              LSLS     r0,r5,#30
0010c4  e004              B        |L3.4304|
0010c6  0000              DCW      0x0000
                  |L3.4296|
                          DCD      0x8f1bbcdc
                  |L3.4300|
                          DCD      0xca62c1d6
                  |L3.4304|
0010d0  ea400595          ORR      r5,r0,r5,LSR #2
0010d4  69a1              LDR      r1,[r4,#0x18]
0010d6  6ae0              LDR      r0,[r4,#0x2c]
0010d8  4048              EORS     r0,r0,r1
0010da  6821              LDR      r1,[r4,#0]
0010dc  4048              EORS     r0,r0,r1
0010de  6ba1              LDR      r1,[r4,#0x38]
0010e0  4048              EORS     r0,r0,r1
0010e2  0041              LSLS     r1,r0,#1
0010e4  69a2              LDR      r2,[r4,#0x18]
0010e6  6ae0              LDR      r0,[r4,#0x2c]
0010e8  4050              EORS     r0,r0,r2
0010ea  6822              LDR      r2,[r4,#0]
0010ec  4050              EORS     r0,r0,r2
0010ee  6ba2              LDR      r2,[r4,#0x38]
0010f0  4050              EORS     r0,r0,r2
0010f2  ea4171d0          ORR      r1,r1,r0,LSR #31
0010f6  ea890005          EOR      r0,r9,r5
0010fa  4070              EORS     r0,r0,r6
0010fc  4408              ADD      r0,r0,r1
0010fe  63a1              STR      r1,[r4,#0x38]
001100  49ff              LDR      r1,|L3.5376|
001102  4408              ADD      r0,r0,r1
001104  ea4f1148          LSL      r1,r8,#5
001108  ea4161d8          ORR      r1,r1,r8,LSR #27
00110c  4408              ADD      r0,r0,r1
00110e  4407              ADD      r7,r7,r0
001110  ea4f7089          LSL      r0,r9,#30
001114  ea400999          ORR      r9,r0,r9,LSR #2
001118  69e1              LDR      r1,[r4,#0x1c]
00111a  6b20              LDR      r0,[r4,#0x30]
00111c  4048              EORS     r0,r0,r1
00111e  6861              LDR      r1,[r4,#4]
001120  4048              EORS     r0,r0,r1
001122  6be1              LDR      r1,[r4,#0x3c]
001124  4048              EORS     r0,r0,r1
001126  0041              LSLS     r1,r0,#1
001128  69e2              LDR      r2,[r4,#0x1c]
00112a  6b20              LDR      r0,[r4,#0x30]
00112c  4050              EORS     r0,r0,r2
00112e  6862              LDR      r2,[r4,#4]
001130  4050              EORS     r0,r0,r2
001132  6be2              LDR      r2,[r4,#0x3c]
001134  4050              EORS     r0,r0,r2
001136  ea4171d0          ORR      r1,r1,r0,LSR #31
00113a  ea880009          EOR      r0,r8,r9
00113e  4068              EORS     r0,r0,r5
001140  4408              ADD      r0,r0,r1
001142  63e1              STR      r1,[r4,#0x3c]
001144  49ee              LDR      r1,|L3.5376|
001146  4408              ADD      r0,r0,r1
001148  0179              LSLS     r1,r7,#5
00114a  ea4161d7          ORR      r1,r1,r7,LSR #27
00114e  4408              ADD      r0,r0,r1
001150  4406              ADD      r6,r6,r0
001152  ea4f7088          LSL      r0,r8,#30
001156  ea400898          ORR      r8,r0,r8,LSR #2
;;;215    	R4(b,c,d,e,a,64); R4(a,b,c,d,e,65); R4(e,a,b,c,d,66); R4(d,e,a,b,c,67);
00115a  6a21              LDR      r1,[r4,#0x20]
00115c  6b60              LDR      r0,[r4,#0x34]
00115e  4048              EORS     r0,r0,r1
001160  68a1              LDR      r1,[r4,#8]
001162  4048              EORS     r0,r0,r1
001164  6821              LDR      r1,[r4,#0]
001166  4048              EORS     r0,r0,r1
001168  0041              LSLS     r1,r0,#1
00116a  6a22              LDR      r2,[r4,#0x20]
00116c  6b60              LDR      r0,[r4,#0x34]
00116e  4050              EORS     r0,r0,r2
001170  68a2              LDR      r2,[r4,#8]
001172  4050              EORS     r0,r0,r2
001174  6822              LDR      r2,[r4,#0]
001176  4050              EORS     r0,r0,r2
001178  ea4171d0          ORR      r1,r1,r0,LSR #31
00117c  ea870008          EOR      r0,r7,r8
001180  ea800009          EOR      r0,r0,r9
001184  4408              ADD      r0,r0,r1
001186  6021              STR      r1,[r4,#0]
001188  49dd              LDR      r1,|L3.5376|
00118a  4408              ADD      r0,r0,r1
00118c  0171              LSLS     r1,r6,#5
00118e  ea4161d6          ORR      r1,r1,r6,LSR #27
001192  4408              ADD      r0,r0,r1
001194  4405              ADD      r5,r5,r0
001196  07b8              LSLS     r0,r7,#30
001198  ea400797          ORR      r7,r0,r7,LSR #2
00119c  6a61              LDR      r1,[r4,#0x24]
00119e  6ba0              LDR      r0,[r4,#0x38]
0011a0  4048              EORS     r0,r0,r1
0011a2  68e1              LDR      r1,[r4,#0xc]
0011a4  4048              EORS     r0,r0,r1
0011a6  6861              LDR      r1,[r4,#4]
0011a8  4048              EORS     r0,r0,r1
0011aa  0041              LSLS     r1,r0,#1
0011ac  6a62              LDR      r2,[r4,#0x24]
0011ae  6ba0              LDR      r0,[r4,#0x38]
0011b0  4050              EORS     r0,r0,r2
0011b2  68e2              LDR      r2,[r4,#0xc]
0011b4  4050              EORS     r0,r0,r2
0011b6  6862              LDR      r2,[r4,#4]
0011b8  4050              EORS     r0,r0,r2
0011ba  ea4171d0          ORR      r1,r1,r0,LSR #31
0011be  ea860007          EOR      r0,r6,r7
0011c2  ea800008          EOR      r0,r0,r8
0011c6  4408              ADD      r0,r0,r1
0011c8  6061              STR      r1,[r4,#4]
0011ca  49cd              LDR      r1,|L3.5376|
0011cc  4408              ADD      r0,r0,r1
0011ce  0169              LSLS     r1,r5,#5
0011d0  ea4161d5          ORR      r1,r1,r5,LSR #27
0011d4  4408              ADD      r0,r0,r1
0011d6  4481              ADD      r9,r9,r0
0011d8  07b0              LSLS     r0,r6,#30
0011da  ea400696          ORR      r6,r0,r6,LSR #2
0011de  6aa1              LDR      r1,[r4,#0x28]
0011e0  6be0              LDR      r0,[r4,#0x3c]
0011e2  4048              EORS     r0,r0,r1
0011e4  6921              LDR      r1,[r4,#0x10]
0011e6  4048              EORS     r0,r0,r1
0011e8  68a1              LDR      r1,[r4,#8]
0011ea  4048              EORS     r0,r0,r1
0011ec  0041              LSLS     r1,r0,#1
0011ee  6aa2              LDR      r2,[r4,#0x28]
0011f0  6be0              LDR      r0,[r4,#0x3c]
0011f2  4050              EORS     r0,r0,r2
0011f4  6922              LDR      r2,[r4,#0x10]
0011f6  4050              EORS     r0,r0,r2
0011f8  68a2              LDR      r2,[r4,#8]
0011fa  4050              EORS     r0,r0,r2
0011fc  ea4171d0          ORR      r1,r1,r0,LSR #31
001200  ea850006          EOR      r0,r5,r6
001204  4078              EORS     r0,r0,r7
001206  4408              ADD      r0,r0,r1
001208  60a1              STR      r1,[r4,#8]
00120a  49bd              LDR      r1,|L3.5376|
00120c  4408              ADD      r0,r0,r1
00120e  ea4f1149          LSL      r1,r9,#5
001212  ea4161d9          ORR      r1,r1,r9,LSR #27
001216  4408              ADD      r0,r0,r1
001218  4480              ADD      r8,r8,r0
00121a  07a8              LSLS     r0,r5,#30
00121c  ea400595          ORR      r5,r0,r5,LSR #2
001220  6ae1              LDR      r1,[r4,#0x2c]
001222  6820              LDR      r0,[r4,#0]
001224  4048              EORS     r0,r0,r1
001226  6961              LDR      r1,[r4,#0x14]
001228  4048              EORS     r0,r0,r1
00122a  68e1              LDR      r1,[r4,#0xc]
00122c  4048              EORS     r0,r0,r1
00122e  0041              LSLS     r1,r0,#1
001230  6ae2              LDR      r2,[r4,#0x2c]
001232  6820              LDR      r0,[r4,#0]
001234  4050              EORS     r0,r0,r2
001236  6962              LDR      r2,[r4,#0x14]
001238  4050              EORS     r0,r0,r2
00123a  68e2              LDR      r2,[r4,#0xc]
00123c  4050              EORS     r0,r0,r2
00123e  ea4171d0          ORR      r1,r1,r0,LSR #31
001242  ea890005          EOR      r0,r9,r5
001246  4070              EORS     r0,r0,r6
001248  4408              ADD      r0,r0,r1
00124a  60e1              STR      r1,[r4,#0xc]
00124c  49ac              LDR      r1,|L3.5376|
00124e  4408              ADD      r0,r0,r1
001250  ea4f1148          LSL      r1,r8,#5
001254  ea4161d8          ORR      r1,r1,r8,LSR #27
001258  4408              ADD      r0,r0,r1
00125a  4407              ADD      r7,r7,r0
00125c  ea4f7089          LSL      r0,r9,#30
001260  ea400999          ORR      r9,r0,r9,LSR #2
;;;216    	R4(c,d,e,a,b,68); R4(b,c,d,e,a,69); R4(a,b,c,d,e,70); R4(e,a,b,c,d,71);
001264  6b21              LDR      r1,[r4,#0x30]
001266  6860              LDR      r0,[r4,#4]
001268  4048              EORS     r0,r0,r1
00126a  69a1              LDR      r1,[r4,#0x18]
00126c  4048              EORS     r0,r0,r1
00126e  6921              LDR      r1,[r4,#0x10]
001270  4048              EORS     r0,r0,r1
001272  0041              LSLS     r1,r0,#1
001274  6b22              LDR      r2,[r4,#0x30]
001276  6860              LDR      r0,[r4,#4]
001278  4050              EORS     r0,r0,r2
00127a  69a2              LDR      r2,[r4,#0x18]
00127c  4050              EORS     r0,r0,r2
00127e  6922              LDR      r2,[r4,#0x10]
001280  4050              EORS     r0,r0,r2
001282  ea4171d0          ORR      r1,r1,r0,LSR #31
001286  ea880009          EOR      r0,r8,r9
00128a  4068              EORS     r0,r0,r5
00128c  4408              ADD      r0,r0,r1
00128e  6121              STR      r1,[r4,#0x10]
001290  499b              LDR      r1,|L3.5376|
001292  4408              ADD      r0,r0,r1
001294  0179              LSLS     r1,r7,#5
001296  ea4161d7          ORR      r1,r1,r7,LSR #27
00129a  4408              ADD      r0,r0,r1
00129c  4406              ADD      r6,r6,r0
00129e  ea4f7088          LSL      r0,r8,#30
0012a2  ea400898          ORR      r8,r0,r8,LSR #2
0012a6  6b61              LDR      r1,[r4,#0x34]
0012a8  68a0              LDR      r0,[r4,#8]
0012aa  4048              EORS     r0,r0,r1
0012ac  69e1              LDR      r1,[r4,#0x1c]
0012ae  4048              EORS     r0,r0,r1
0012b0  6961              LDR      r1,[r4,#0x14]
0012b2  4048              EORS     r0,r0,r1
0012b4  0041              LSLS     r1,r0,#1
0012b6  6b62              LDR      r2,[r4,#0x34]
0012b8  68a0              LDR      r0,[r4,#8]
0012ba  4050              EORS     r0,r0,r2
0012bc  69e2              LDR      r2,[r4,#0x1c]
0012be  4050              EORS     r0,r0,r2
0012c0  6962              LDR      r2,[r4,#0x14]
0012c2  4050              EORS     r0,r0,r2
0012c4  ea4171d0          ORR      r1,r1,r0,LSR #31
0012c8  ea870008          EOR      r0,r7,r8
0012cc  ea800009          EOR      r0,r0,r9
0012d0  4408              ADD      r0,r0,r1
0012d2  6161              STR      r1,[r4,#0x14]
0012d4  498a              LDR      r1,|L3.5376|
0012d6  4408              ADD      r0,r0,r1
0012d8  0171              LSLS     r1,r6,#5
0012da  ea4161d6          ORR      r1,r1,r6,LSR #27
0012de  4408              ADD      r0,r0,r1
0012e0  4405              ADD      r5,r5,r0
0012e2  07b8              LSLS     r0,r7,#30
0012e4  ea400797          ORR      r7,r0,r7,LSR #2
0012e8  6ba1              LDR      r1,[r4,#0x38]
0012ea  68e0              LDR      r0,[r4,#0xc]
0012ec  4048              EORS     r0,r0,r1
0012ee  6a21              LDR      r1,[r4,#0x20]
0012f0  4048              EORS     r0,r0,r1
0012f2  69a1              LDR      r1,[r4,#0x18]
0012f4  4048              EORS     r0,r0,r1
0012f6  0041              LSLS     r1,r0,#1
0012f8  6ba2              LDR      r2,[r4,#0x38]
0012fa  68e0              LDR      r0,[r4,#0xc]
0012fc  4050              EORS     r0,r0,r2
0012fe  6a22              LDR      r2,[r4,#0x20]
001300  4050              EORS     r0,r0,r2
001302  69a2              LDR      r2,[r4,#0x18]
001304  4050              EORS     r0,r0,r2
001306  ea4171d0          ORR      r1,r1,r0,LSR #31
00130a  ea860007          EOR      r0,r6,r7
00130e  ea800008          EOR      r0,r0,r8
001312  4408              ADD      r0,r0,r1
001314  61a1              STR      r1,[r4,#0x18]
001316  497a              LDR      r1,|L3.5376|
001318  4408              ADD      r0,r0,r1
00131a  0169              LSLS     r1,r5,#5
00131c  ea4161d5          ORR      r1,r1,r5,LSR #27
001320  4408              ADD      r0,r0,r1
001322  4481              ADD      r9,r9,r0
001324  07b0              LSLS     r0,r6,#30
001326  ea400696          ORR      r6,r0,r6,LSR #2
00132a  6be1              LDR      r1,[r4,#0x3c]
00132c  6920              LDR      r0,[r4,#0x10]
00132e  4048              EORS     r0,r0,r1
001330  6a61              LDR      r1,[r4,#0x24]
001332  4048              EORS     r0,r0,r1
001334  69e1              LDR      r1,[r4,#0x1c]
001336  4048              EORS     r0,r0,r1
001338  0041              LSLS     r1,r0,#1
00133a  6be2              LDR      r2,[r4,#0x3c]
00133c  6920              LDR      r0,[r4,#0x10]
00133e  4050              EORS     r0,r0,r2
001340  6a62              LDR      r2,[r4,#0x24]
001342  4050              EORS     r0,r0,r2
001344  69e2              LDR      r2,[r4,#0x1c]
001346  4050              EORS     r0,r0,r2
001348  ea4171d0          ORR      r1,r1,r0,LSR #31
00134c  ea850006          EOR      r0,r5,r6
001350  4078              EORS     r0,r0,r7
001352  4408              ADD      r0,r0,r1
001354  61e1              STR      r1,[r4,#0x1c]
001356  496a              LDR      r1,|L3.5376|
001358  4408              ADD      r0,r0,r1
00135a  ea4f1149          LSL      r1,r9,#5
00135e  ea4161d9          ORR      r1,r1,r9,LSR #27
001362  4408              ADD      r0,r0,r1
001364  4480              ADD      r8,r8,r0
001366  07a8              LSLS     r0,r5,#30
001368  ea400595          ORR      r5,r0,r5,LSR #2
;;;217    	R4(d,e,a,b,c,72); R4(c,d,e,a,b,73); R4(b,c,d,e,a,74); R4(a,b,c,d,e,75);
00136c  6821              LDR      r1,[r4,#0]
00136e  6960              LDR      r0,[r4,#0x14]
001370  4048              EORS     r0,r0,r1
001372  6aa1              LDR      r1,[r4,#0x28]
001374  4048              EORS     r0,r0,r1
001376  6a21              LDR      r1,[r4,#0x20]
001378  4048              EORS     r0,r0,r1
00137a  0041              LSLS     r1,r0,#1
00137c  6822              LDR      r2,[r4,#0]
00137e  6960              LDR      r0,[r4,#0x14]
001380  4050              EORS     r0,r0,r2
001382  6aa2              LDR      r2,[r4,#0x28]
001384  4050              EORS     r0,r0,r2
001386  6a22              LDR      r2,[r4,#0x20]
001388  4050              EORS     r0,r0,r2
00138a  ea4171d0          ORR      r1,r1,r0,LSR #31
00138e  ea890005          EOR      r0,r9,r5
001392  4070              EORS     r0,r0,r6
001394  4408              ADD      r0,r0,r1
001396  6221              STR      r1,[r4,#0x20]
001398  4959              LDR      r1,|L3.5376|
00139a  4408              ADD      r0,r0,r1
00139c  ea4f1148          LSL      r1,r8,#5
0013a0  ea4161d8          ORR      r1,r1,r8,LSR #27
0013a4  4408              ADD      r0,r0,r1
0013a6  4407              ADD      r7,r7,r0
0013a8  ea4f7089          LSL      r0,r9,#30
0013ac  ea400999          ORR      r9,r0,r9,LSR #2
0013b0  6861              LDR      r1,[r4,#4]
0013b2  69a0              LDR      r0,[r4,#0x18]
0013b4  4048              EORS     r0,r0,r1
0013b6  6ae1              LDR      r1,[r4,#0x2c]
0013b8  4048              EORS     r0,r0,r1
0013ba  6a61              LDR      r1,[r4,#0x24]
0013bc  4048              EORS     r0,r0,r1
0013be  0041              LSLS     r1,r0,#1
0013c0  6862              LDR      r2,[r4,#4]
0013c2  69a0              LDR      r0,[r4,#0x18]
0013c4  4050              EORS     r0,r0,r2
0013c6  6ae2              LDR      r2,[r4,#0x2c]
0013c8  4050              EORS     r0,r0,r2
0013ca  6a62              LDR      r2,[r4,#0x24]
0013cc  4050              EORS     r0,r0,r2
0013ce  ea4171d0          ORR      r1,r1,r0,LSR #31
0013d2  ea880009          EOR      r0,r8,r9
0013d6  4068              EORS     r0,r0,r5
0013d8  4408              ADD      r0,r0,r1
0013da  6261              STR      r1,[r4,#0x24]
0013dc  4948              LDR      r1,|L3.5376|
0013de  4408              ADD      r0,r0,r1
0013e0  0179              LSLS     r1,r7,#5
0013e2  ea4161d7          ORR      r1,r1,r7,LSR #27
0013e6  4408              ADD      r0,r0,r1
0013e8  4406              ADD      r6,r6,r0
0013ea  ea4f7088          LSL      r0,r8,#30
0013ee  ea400898          ORR      r8,r0,r8,LSR #2
0013f2  68a1              LDR      r1,[r4,#8]
0013f4  69e0              LDR      r0,[r4,#0x1c]
0013f6  4048              EORS     r0,r0,r1
0013f8  6b21              LDR      r1,[r4,#0x30]
0013fa  4048              EORS     r0,r0,r1
0013fc  6aa1              LDR      r1,[r4,#0x28]
0013fe  4048              EORS     r0,r0,r1
001400  0041              LSLS     r1,r0,#1
001402  68a2              LDR      r2,[r4,#8]
001404  69e0              LDR      r0,[r4,#0x1c]
001406  4050              EORS     r0,r0,r2
001408  6b22              LDR      r2,[r4,#0x30]
00140a  4050              EORS     r0,r0,r2
00140c  6aa2              LDR      r2,[r4,#0x28]
00140e  4050              EORS     r0,r0,r2
001410  ea4171d0          ORR      r1,r1,r0,LSR #31
001414  ea870008          EOR      r0,r7,r8
001418  ea800009          EOR      r0,r0,r9
00141c  4408              ADD      r0,r0,r1
00141e  62a1              STR      r1,[r4,#0x28]
001420  4937              LDR      r1,|L3.5376|
001422  4408              ADD      r0,r0,r1
001424  0171              LSLS     r1,r6,#5
001426  ea4161d6          ORR      r1,r1,r6,LSR #27
00142a  4408              ADD      r0,r0,r1
00142c  4405              ADD      r5,r5,r0
00142e  07b8              LSLS     r0,r7,#30
001430  ea400797          ORR      r7,r0,r7,LSR #2
001434  68e1              LDR      r1,[r4,#0xc]
001436  6a20              LDR      r0,[r4,#0x20]
001438  4048              EORS     r0,r0,r1
00143a  6b61              LDR      r1,[r4,#0x34]
00143c  4048              EORS     r0,r0,r1
00143e  6ae1              LDR      r1,[r4,#0x2c]
001440  4048              EORS     r0,r0,r1
001442  0041              LSLS     r1,r0,#1
001444  68e2              LDR      r2,[r4,#0xc]
001446  6a20              LDR      r0,[r4,#0x20]
001448  4050              EORS     r0,r0,r2
00144a  6b62              LDR      r2,[r4,#0x34]
00144c  4050              EORS     r0,r0,r2
00144e  6ae2              LDR      r2,[r4,#0x2c]
001450  4050              EORS     r0,r0,r2
001452  ea4171d0          ORR      r1,r1,r0,LSR #31
001456  ea860007          EOR      r0,r6,r7
00145a  ea800008          EOR      r0,r0,r8
00145e  4408              ADD      r0,r0,r1
001460  62e1              STR      r1,[r4,#0x2c]
001462  4927              LDR      r1,|L3.5376|
001464  4408              ADD      r0,r0,r1
001466  0169              LSLS     r1,r5,#5
001468  ea4161d5          ORR      r1,r1,r5,LSR #27
00146c  4408              ADD      r0,r0,r1
00146e  4481              ADD      r9,r9,r0
001470  07b0              LSLS     r0,r6,#30
001472  ea400696          ORR      r6,r0,r6,LSR #2
;;;218    	R4(e,a,b,c,d,76); R4(d,e,a,b,c,77); R4(c,d,e,a,b,78); R4(b,c,d,e,a,79);
001476  6921              LDR      r1,[r4,#0x10]
001478  6a60              LDR      r0,[r4,#0x24]
00147a  4048              EORS     r0,r0,r1
00147c  6ba1              LDR      r1,[r4,#0x38]
00147e  4048              EORS     r0,r0,r1
001480  6b21              LDR      r1,[r4,#0x30]
001482  4048              EORS     r0,r0,r1
001484  0041              LSLS     r1,r0,#1
001486  6922              LDR      r2,[r4,#0x10]
001488  6a60              LDR      r0,[r4,#0x24]
00148a  4050              EORS     r0,r0,r2
00148c  6ba2              LDR      r2,[r4,#0x38]
00148e  4050              EORS     r0,r0,r2
001490  6b22              LDR      r2,[r4,#0x30]
001492  4050              EORS     r0,r0,r2
001494  ea4171d0          ORR      r1,r1,r0,LSR #31
001498  ea850006          EOR      r0,r5,r6
00149c  4078              EORS     r0,r0,r7
00149e  4408              ADD      r0,r0,r1
0014a0  6321              STR      r1,[r4,#0x30]
0014a2  4917              LDR      r1,|L3.5376|
0014a4  4408              ADD      r0,r0,r1
0014a6  ea4f1149          LSL      r1,r9,#5
0014aa  ea4161d9          ORR      r1,r1,r9,LSR #27
0014ae  4408              ADD      r0,r0,r1
0014b0  4480              ADD      r8,r8,r0
0014b2  07a8              LSLS     r0,r5,#30
0014b4  ea400595          ORR      r5,r0,r5,LSR #2
0014b8  6961              LDR      r1,[r4,#0x14]
0014ba  6aa0              LDR      r0,[r4,#0x28]
0014bc  4048              EORS     r0,r0,r1
0014be  6be1              LDR      r1,[r4,#0x3c]
0014c0  4048              EORS     r0,r0,r1
0014c2  6b61              LDR      r1,[r4,#0x34]
0014c4  4048              EORS     r0,r0,r1
0014c6  0041              LSLS     r1,r0,#1
0014c8  6962              LDR      r2,[r4,#0x14]
0014ca  6aa0              LDR      r0,[r4,#0x28]
0014cc  4050              EORS     r0,r0,r2
0014ce  6be2              LDR      r2,[r4,#0x3c]
0014d0  4050              EORS     r0,r0,r2
0014d2  6b62              LDR      r2,[r4,#0x34]
0014d4  4050              EORS     r0,r0,r2
0014d6  ea4171d0          ORR      r1,r1,r0,LSR #31
0014da  ea890005          EOR      r0,r9,r5
0014de  4070              EORS     r0,r0,r6
0014e0  4408              ADD      r0,r0,r1
0014e2  6361              STR      r1,[r4,#0x34]
0014e4  4906              LDR      r1,|L3.5376|
0014e6  4408              ADD      r0,r0,r1
0014e8  ea4f1148          LSL      r1,r8,#5
0014ec  ea4161d8          ORR      r1,r1,r8,LSR #27
0014f0  4408              ADD      r0,r0,r1
0014f2  4407              ADD      r7,r7,r0
0014f4  ea4f7089          LSL      r0,r9,#30
0014f8  ea400999          ORR      r9,r0,r9,LSR #2
0014fc  69a1              LDR      r1,[r4,#0x18]
0014fe  e001              B        |L3.5380|
                  |L3.5376|
                          DCD      0xca62c1d6
                  |L3.5380|
001504  6ae0              LDR      r0,[r4,#0x2c]
001506  4048              EORS     r0,r0,r1
001508  6821              LDR      r1,[r4,#0]
00150a  4048              EORS     r0,r0,r1
00150c  6ba1              LDR      r1,[r4,#0x38]
00150e  4048              EORS     r0,r0,r1
001510  0041              LSLS     r1,r0,#1
001512  69a2              LDR      r2,[r4,#0x18]
001514  6ae0              LDR      r0,[r4,#0x2c]
001516  4050              EORS     r0,r0,r2
001518  6822              LDR      r2,[r4,#0]
00151a  4050              EORS     r0,r0,r2
00151c  6ba2              LDR      r2,[r4,#0x38]
00151e  4050              EORS     r0,r0,r2
001520  ea4171d0          ORR      r1,r1,r0,LSR #31
001524  ea880009          EOR      r0,r8,r9
001528  4068              EORS     r0,r0,r5
00152a  4408              ADD      r0,r0,r1
00152c  63a1              STR      r1,[r4,#0x38]
00152e  4929              LDR      r1,|L3.5588|
001530  4408              ADD      r0,r0,r1
001532  0179              LSLS     r1,r7,#5
001534  ea4161d7          ORR      r1,r1,r7,LSR #27
001538  4408              ADD      r0,r0,r1
00153a  4406              ADD      r6,r6,r0
00153c  ea4f7088          LSL      r0,r8,#30
001540  ea400898          ORR      r8,r0,r8,LSR #2
001544  69e1              LDR      r1,[r4,#0x1c]
001546  6b20              LDR      r0,[r4,#0x30]
001548  4048              EORS     r0,r0,r1
00154a  6861              LDR      r1,[r4,#4]
00154c  4048              EORS     r0,r0,r1
00154e  6be1              LDR      r1,[r4,#0x3c]
001550  4048              EORS     r0,r0,r1
001552  0041              LSLS     r1,r0,#1
001554  69e2              LDR      r2,[r4,#0x1c]
001556  6b20              LDR      r0,[r4,#0x30]
001558  4050              EORS     r0,r0,r2
00155a  6862              LDR      r2,[r4,#4]
00155c  4050              EORS     r0,r0,r2
00155e  6be2              LDR      r2,[r4,#0x3c]
001560  4050              EORS     r0,r0,r2
001562  ea4171d0          ORR      r1,r1,r0,LSR #31
001566  ea870008          EOR      r0,r7,r8
00156a  ea800009          EOR      r0,r0,r9
00156e  4408              ADD      r0,r0,r1
001570  63e1              STR      r1,[r4,#0x3c]
001572  4918              LDR      r1,|L3.5588|
001574  4408              ADD      r0,r0,r1
001576  0171              LSLS     r1,r6,#5
001578  ea4161d6          ORR      r1,r1,r6,LSR #27
00157c  4408              ADD      r0,r0,r1
00157e  4405              ADD      r5,r5,r0
001580  07b8              LSLS     r0,r7,#30
001582  ea400797          ORR      r7,r0,r7,LSR #2
;;;219    	/* Add the working vars back into context.state[] */
;;;220    	state[0] += a;
001586  f8da0000          LDR      r0,[r10,#0]
00158a  4428              ADD      r0,r0,r5
00158c  f8ca0000          STR      r0,[r10,#0]
;;;221    	state[1] += b;
001590  f8da0004          LDR      r0,[r10,#4]
001594  4430              ADD      r0,r0,r6
001596  f8ca0004          STR      r0,[r10,#4]
;;;222    	state[2] += c;
00159a  f8da0008          LDR      r0,[r10,#8]
00159e  4438              ADD      r0,r0,r7
0015a0  f8ca0008          STR      r0,[r10,#8]
;;;223    	state[3] += d;
0015a4  f8da000c          LDR      r0,[r10,#0xc]
0015a8  4440              ADD      r0,r0,r8
0015aa  f8ca000c          STR      r0,[r10,#0xc]
;;;224    	state[4] += e;
0015ae  f8da0010          LDR      r0,[r10,#0x10]
0015b2  4448              ADD      r0,r0,r9
0015b4  f8ca0010          STR      r0,[r10,#0x10]
;;;225    	/* Wipe variables */
;;;226    	a = b = c = d = e = 0;
0015b8  2000              MOVS     r0,#0
0015ba  4681              MOV      r9,r0
0015bc  4680              MOV      r8,r0
0015be  4607              MOV      r7,r0
0015c0  4606              MOV      r6,r0
0015c2  4605              MOV      r5,r0
;;;227    #ifdef SHA1HANDSOFF
;;;228    	os_memset(block, 0, 64);
0015c4  2240              MOVS     r2,#0x40
0015c6  2100              MOVS     r1,#0
0015c8  4620              MOV      r0,r4
0015ca  f7fffffe          BL       os_memset
;;;229    #endif
;;;230    }
0015ce  b011              ADD      sp,sp,#0x44
0015d0  e8bd8ff0          POP      {r4-r11,pc}
;;;231    
                          ENDP

                  |L3.5588|
                          DCD      0xca62c1d6

                          AREA ||i.SHA1Update||, CODE, READONLY, ALIGN=1

                  SHA1Update PROC
;;;248    
;;;249    void SHA1Update(SHA1_CTX* context, const void *_data, u32 len)
000000  e92d47f0          PUSH     {r4-r10,lr}
;;;250    {
000004  4604              MOV      r4,r0
000006  4689              MOV      r9,r1
000008  4615              MOV      r5,r2
;;;251    	u32 i, j;
;;;252    	const unsigned char *data = _data;
00000a  46c8              MOV      r8,r9
;;;253    
;;;254    #ifdef VERBOSE
;;;255    	SHAPrintContext(context, "before");
;;;256    #endif
;;;257    	j = (context->count[0] >> 3) & 63;
00000c  6960              LDR      r0,[r4,#0x14]
00000e  f3c007c5          UBFX     r7,r0,#3,#6
;;;258    	if ((context->count[0] += len << 3) < (len << 3))
000012  6960              LDR      r0,[r4,#0x14]
000014  eb0000c5          ADD      r0,r0,r5,LSL #3
000018  6160              STR      r0,[r4,#0x14]
00001a  ebb00fc5          CMP      r0,r5,LSL #3
00001e  d202              BCS      |L4.38|
;;;259    		context->count[1]++;
000020  69a0              LDR      r0,[r4,#0x18]
000022  1c40              ADDS     r0,r0,#1
000024  61a0              STR      r0,[r4,#0x18]
                  |L4.38|
;;;260    	context->count[1] += (len >> 29);
000026  69a0              LDR      r0,[r4,#0x18]
000028  eb007155          ADD      r1,r0,r5,LSR #29
00002c  61a1              STR      r1,[r4,#0x18]
;;;261    	if ((j + len) > 63) {
00002e  1978              ADDS     r0,r7,r5
000030  283f              CMP      r0,#0x3f
000032  d91a              BLS      |L4.106|
;;;262    		os_memcpy(&context->buffer[j], data, (i = 64-j));
000034  f1c70640          RSB      r6,r7,#0x40
000038  4632              MOV      r2,r6
00003a  f104011c          ADD      r1,r4,#0x1c
00003e  19c8              ADDS     r0,r1,r7
000040  4641              MOV      r1,r8
000042  f7fffffe          BL       os_memcpy
;;;263    		SHA1Transform(context->state, context->buffer);
000046  f104011c          ADD      r1,r4,#0x1c
00004a  4620              MOV      r0,r4
00004c  f7fffffe          BL       SHA1Transform
;;;264    		for ( ; i + 63 < len; i += 64) {
000050  e005              B        |L4.94|
                  |L4.82|
;;;265    			SHA1Transform(context->state, &data[i]);
000052  eb080106          ADD      r1,r8,r6
000056  4620              MOV      r0,r4
000058  f7fffffe          BL       SHA1Transform
00005c  3640              ADDS     r6,r6,#0x40           ;264
                  |L4.94|
00005e  f106003f          ADD      r0,r6,#0x3f           ;264
000062  42a8              CMP      r0,r5                 ;264
000064  d3f5              BCC      |L4.82|
;;;266    		}
;;;267    		j = 0;
000066  2700              MOVS     r7,#0
000068  e000              B        |L4.108|
                  |L4.106|
;;;268    	}
;;;269    	else i = 0;
00006a  2600              MOVS     r6,#0
                  |L4.108|
;;;270    	os_memcpy(&context->buffer[j], &data[i], len - i);
00006c  1baa              SUBS     r2,r5,r6
00006e  eb080106          ADD      r1,r8,r6
000072  f104031c          ADD      r3,r4,#0x1c
000076  19d8              ADDS     r0,r3,r7
000078  f7fffffe          BL       os_memcpy
;;;271    #ifdef VERBOSE
;;;272    	SHAPrintContext(context, "after ");
;;;273    #endif
;;;274    }
00007c  e8bd87f0          POP      {r4-r10,pc}
;;;275    
                          ENDP


                          AREA ||i.dbug_buf||, CODE, READONLY, ALIGN=1

                  dbug_buf PROC
;;;22     #define WPA_RUN_TEST //wpa_printf(MSG_DEBUG,"WPA_RUN_TEST ### [%s:%d] FILE:%s .\r\n",__FUNCTION__,__LINE__,__FILE__);
;;;23     static void dbug_buf(const char * name , const unsigned char * buf , const int len)
000000  4770              BX       lr
;;;24     {
;;;25     	
;;;26     #if 0
;;;27     	int i = 0;
;;;28     	printf("dbug buf [%s]\n",name);
;;;29     	for(;i<len;i++)
;;;30     	{
;;;31     		printf("0x%02x,",buf[i]);
;;;32     	}
;;;33     	printf("\n");
;;;34     #endif
;;;35     }
;;;36     
                          ENDP


                          AREA ||i.is_zero_ether_addr||, CODE, READONLY, ALIGN=1

                  is_zero_ether_addr PROC
;;;491    
;;;492    static int is_zero_ether_addr(const u8 *a)
000000  4601              MOV      r1,r0
;;;493    {
;;;494    	return !(a[0] | a[1] | a[2] | a[3] | a[4] | a[5]);
000002  7808              LDRB     r0,[r1,#0]
000004  784a              LDRB     r2,[r1,#1]
000006  4310              ORRS     r0,r0,r2
000008  788a              LDRB     r2,[r1,#2]
00000a  4310              ORRS     r0,r0,r2
00000c  78ca              LDRB     r2,[r1,#3]
00000e  4310              ORRS     r0,r0,r2
000010  790a              LDRB     r2,[r1,#4]
000012  4310              ORRS     r0,r0,r2
000014  794a              LDRB     r2,[r1,#5]
000016  4310              ORRS     r0,r0,r2
000018  d101              BNE      |L6.30|
00001a  2001              MOVS     r0,#1
                  |L6.28|
;;;495    }
00001c  4770              BX       lr
                  |L6.30|
00001e  2000              MOVS     r0,#0                 ;494
000020  e7fc              B        |L6.28|
;;;496    
                          ENDP


                          AREA ||i.sha1_vector||, CODE, READONLY, ALIGN=1

                  sha1_vector PROC
;;;35      */
;;;36     int sha1_vector(size_t num_elem, const u8 *addr[], const size_t *len, u8 *mac)
000000  e92d41f0          PUSH     {r4-r8,lr}
;;;37     {
000004  b098              SUB      sp,sp,#0x60
000006  4605              MOV      r5,r0
000008  460e              MOV      r6,r1
00000a  4617              MOV      r7,r2
00000c  4698              MOV      r8,r3
;;;38     	SHA1_CTX ctx;
;;;39     	size_t i;
;;;40     
;;;41     	SHA1Init(&ctx);
00000e  a801              ADD      r0,sp,#4
000010  f7fffffe          BL       SHA1Init
;;;42     	for (i = 0; i < num_elem; i++)
000014  2400              MOVS     r4,#0
000016  e007              B        |L7.40|
                  |L7.24|
;;;43     		SHA1Update(&ctx, addr[i], len[i]);
000018  f8572024          LDR      r2,[r7,r4,LSL #2]
00001c  f8561024          LDR      r1,[r6,r4,LSL #2]
000020  a801              ADD      r0,sp,#4
000022  f7fffffe          BL       SHA1Update
000026  1c64              ADDS     r4,r4,#1              ;42
                  |L7.40|
000028  42ac              CMP      r4,r5                 ;42
00002a  d3f5              BCC      |L7.24|
;;;44     	SHA1Final(mac, &ctx);
00002c  a901              ADD      r1,sp,#4
00002e  4640              MOV      r0,r8
000030  f7fffffe          BL       SHA1Final
;;;45     	return 0;
000034  2000              MOVS     r0,#0
;;;46     }
000036  b018              ADD      sp,sp,#0x60
000038  e8bd81f0          POP      {r4-r8,pc}
;;;47     
                          ENDP


                          AREA ||i.wpa_debug_close_syslog||, CODE, READONLY, ALIGN=1

                  wpa_debug_close_syslog PROC
;;;243    
;;;244    static inline void wpa_debug_close_syslog(void)
000000  4770              BX       lr
;;;245    {
;;;246    }
;;;247    
                          ENDP


                          AREA ||i.wpa_debug_open_syslog||, CODE, READONLY, ALIGN=1

                  wpa_debug_open_syslog PROC
;;;239    
;;;240    static inline void wpa_debug_open_syslog(void)
000000  4770              BX       lr
;;;241    {
;;;242    }
;;;243    
                          ENDP


                          AREA ||i.wpa_hexdump_buf||, CODE, READONLY, ALIGN=1

                  wpa_hexdump_buf PROC
;;;87     
;;;88     static inline void wpa_hexdump_buf(int level, const char *title,
000000  e92d41f0          PUSH     {r4-r8,lr}
;;;89     				   const struct wpabuf *buf)
;;;90     {
000004  4605              MOV      r5,r0
000006  460e              MOV      r6,r1
000008  4614              MOV      r4,r2
;;;91     	wpa_hexdump(level, title, wpabuf_head(buf), wpabuf_len(buf));
00000a  4620              MOV      r0,r4
00000c  f7fffffe          BL       wpabuf_len
000010  4607              MOV      r7,r0
000012  4620              MOV      r0,r4
000014  f7fffffe          BL       wpabuf_head
000018  4680              MOV      r8,r0
00001a  463b              MOV      r3,r7
00001c  4602              MOV      r2,r0
00001e  4631              MOV      r1,r6
000020  4628              MOV      r0,r5
000022  f7fffffe          BL       wpa_hexdump
;;;92     }
000026  e8bd81f0          POP      {r4-r8,pc}
;;;93     
                          ENDP


                          AREA ||i.wpa_hexdump_buf_key||, CODE, READONLY, ALIGN=1

                  wpa_hexdump_buf_key PROC
;;;108    
;;;109    static inline void wpa_hexdump_buf_key(int level, const char *title,
000000  e92d41f0          PUSH     {r4-r8,lr}
;;;110    				       const struct wpabuf *buf)
;;;111    {
000004  4605              MOV      r5,r0
000006  460e              MOV      r6,r1
000008  4614              MOV      r4,r2
;;;112    	wpa_hexdump_key(level, title, wpabuf_head(buf), wpabuf_len(buf));
00000a  4620              MOV      r0,r4
00000c  f7fffffe          BL       wpabuf_len
000010  4607              MOV      r7,r0
000012  4620              MOV      r0,r4
000014  f7fffffe          BL       wpabuf_head
000018  4680              MOV      r8,r0
00001a  463b              MOV      r3,r7
00001c  4602              MOV      r2,r0
00001e  4631              MOV      r1,r6
000020  4628              MOV      r0,r5
000022  f7fffffe          BL       wpa_hexdump_key
;;;113    }
000026  e8bd81f0          POP      {r4-r8,pc}
;;;114    
                          ENDP


                          AREA ||i.wpabuf_head||, CODE, READONLY, ALIGN=1

                  wpabuf_head PROC
;;;81      */
;;;82     static inline const void * wpabuf_head(const struct wpabuf *buf)
000000  4601              MOV      r1,r0
;;;83     {
;;;84     	if (buf->ext_data)
000002  6888              LDR      r0,[r1,#8]
000004  b108              CBZ      r0,|L12.10|
;;;85     		return buf->ext_data;
000006  6888              LDR      r0,[r1,#8]
                  |L12.8|
;;;86     	return buf + 1;
;;;87     }
000008  4770              BX       lr
                  |L12.10|
00000a  f101000c          ADD      r0,r1,#0xc            ;86
00000e  e7fb              B        |L12.8|
;;;88     
                          ENDP


                          AREA ||i.wpabuf_head_u8||, CODE, READONLY, ALIGN=1

                  wpabuf_head_u8 PROC
;;;88     
;;;89     static inline const u8 * wpabuf_head_u8(const struct wpabuf *buf)
000000  b510              PUSH     {r4,lr}
;;;90     {
000002  4604              MOV      r4,r0
;;;91     	return wpabuf_head(buf);
000004  4620              MOV      r0,r4
000006  f7fffffe          BL       wpabuf_head
;;;92     }
00000a  bd10              POP      {r4,pc}
;;;93     
                          ENDP


                          AREA ||i.wpabuf_len||, CODE, READONLY, ALIGN=1

                  wpabuf_len PROC
;;;61      */
;;;62     static inline size_t wpabuf_len(const struct wpabuf *buf)
000000  4601              MOV      r1,r0
;;;63     {
;;;64     	return buf->used;
000002  6848              LDR      r0,[r1,#4]
;;;65     }
000004  4770              BX       lr
;;;66     
                          ENDP


                          AREA ||i.wpabuf_mhead||, CODE, READONLY, ALIGN=1

                  wpabuf_mhead PROC
;;;98      */
;;;99     static inline void * wpabuf_mhead(struct wpabuf *buf)
000000  4601              MOV      r1,r0
;;;100    {
;;;101    	if (buf->ext_data)
000002  6888              LDR      r0,[r1,#8]
000004  b108              CBZ      r0,|L15.10|
;;;102    		return buf->ext_data;
000006  6888              LDR      r0,[r1,#8]
                  |L15.8|
;;;103    	return buf + 1;
;;;104    }
000008  4770              BX       lr
                  |L15.10|
00000a  f101000c          ADD      r0,r1,#0xc            ;103
00000e  e7fb              B        |L15.8|
;;;105    
                          ENDP


                          AREA ||i.wpabuf_mhead_u8||, CODE, READONLY, ALIGN=1

                  wpabuf_mhead_u8 PROC
;;;105    
;;;106    static inline u8 * wpabuf_mhead_u8(struct wpabuf *buf)
000000  b510              PUSH     {r4,lr}
;;;107    {
000002  4604              MOV      r4,r0
;;;108    	return wpabuf_mhead(buf);
000004  4620              MOV      r0,r4
000006  f7fffffe          BL       wpabuf_mhead
;;;109    }
00000a  bd10              POP      {r4,pc}
;;;110    
                          ENDP


                          AREA ||i.wpabuf_put_be16||, CODE, READONLY, ALIGN=1

                  wpabuf_put_be16 PROC
;;;122    
;;;123    static inline void wpabuf_put_be16(struct wpabuf *buf, u16 data)
000000  b570              PUSH     {r4-r6,lr}
;;;124    {
000002  4606              MOV      r6,r0
000004  460c              MOV      r4,r1
;;;125    	u8 *pos = wpabuf_put(buf, 2);
000006  2102              MOVS     r1,#2
000008  4630              MOV      r0,r6
00000a  f7fffffe          BL       wpabuf_put
00000e  4605              MOV      r5,r0
;;;126    	WPA_PUT_BE16(pos, data);
000010  bf00              NOP      
000012  1220              ASRS     r0,r4,#8
000014  7028              STRB     r0,[r5,#0]
000016  706c              STRB     r4,[r5,#1]
000018  bf00              NOP      
;;;127    }
00001a  bd70              POP      {r4-r6,pc}
;;;128    
                          ENDP


                          AREA ||i.wpabuf_put_be24||, CODE, READONLY, ALIGN=1

                  wpabuf_put_be24 PROC
;;;128    
;;;129    static inline void wpabuf_put_be24(struct wpabuf *buf, u32 data)
000000  b570              PUSH     {r4-r6,lr}
;;;130    {
000002  4606              MOV      r6,r0
000004  460c              MOV      r4,r1
;;;131    	u8 *pos = wpabuf_put(buf, 3);
000006  2103              MOVS     r1,#3
000008  4630              MOV      r0,r6
00000a  f7fffffe          BL       wpabuf_put
00000e  4605              MOV      r5,r0
;;;132    	WPA_PUT_BE24(pos, data);
000010  bf00              NOP      
000012  0c20              LSRS     r0,r4,#16
000014  7028              STRB     r0,[r5,#0]
000016  0a20              LSRS     r0,r4,#8
000018  7068              STRB     r0,[r5,#1]
00001a  70ac              STRB     r4,[r5,#2]
00001c  bf00              NOP      
;;;133    }
00001e  bd70              POP      {r4-r6,pc}
;;;134    
                          ENDP


                          AREA ||i.wpabuf_put_be32||, CODE, READONLY, ALIGN=1

                  wpabuf_put_be32 PROC
;;;134    
;;;135    static inline void wpabuf_put_be32(struct wpabuf *buf, u32 data)
000000  b570              PUSH     {r4-r6,lr}
;;;136    {
000002  4606              MOV      r6,r0
000004  460c              MOV      r4,r1
;;;137    	u8 *pos = wpabuf_put(buf, 4);
000006  2104              MOVS     r1,#4
000008  4630              MOV      r0,r6
00000a  f7fffffe          BL       wpabuf_put
00000e  4605              MOV      r5,r0
;;;138    	WPA_PUT_BE32(pos, data);
000010  bf00              NOP      
000012  0e20              LSRS     r0,r4,#24
000014  7028              STRB     r0,[r5,#0]
000016  0c20              LSRS     r0,r4,#16
000018  7068              STRB     r0,[r5,#1]
00001a  0a20              LSRS     r0,r4,#8
00001c  70a8              STRB     r0,[r5,#2]
00001e  70ec              STRB     r4,[r5,#3]
000020  bf00              NOP      
;;;139    }
000022  bd70              POP      {r4-r6,pc}
;;;140    
                          ENDP


                          AREA ||i.wpabuf_put_buf||, CODE, READONLY, ALIGN=1

                  wpabuf_put_buf PROC
;;;147    
;;;148    static inline void wpabuf_put_buf(struct wpabuf *dst,
000000  e92d41f0          PUSH     {r4-r8,lr}
;;;149    				  const struct wpabuf *src)
;;;150    {
000004  4605              MOV      r5,r0
000006  460c              MOV      r4,r1
;;;151    	wpabuf_put_data(dst, wpabuf_head(src), wpabuf_len(src));
000008  4620              MOV      r0,r4
00000a  f7fffffe          BL       wpabuf_len
00000e  4606              MOV      r6,r0
000010  4620              MOV      r0,r4
000012  f7fffffe          BL       wpabuf_head
000016  4607              MOV      r7,r0
000018  4632              MOV      r2,r6
00001a  4601              MOV      r1,r0
00001c  4628              MOV      r0,r5
00001e  f7fffffe          BL       wpabuf_put_data
;;;152    }
000022  e8bd81f0          POP      {r4-r8,pc}
;;;153    
                          ENDP


                          AREA ||i.wpabuf_put_data||, CODE, READONLY, ALIGN=1

                  wpabuf_put_data PROC
;;;140    
;;;141    static inline void wpabuf_put_data(struct wpabuf *buf, const void *data,
000000  e92d41f0          PUSH     {r4-r8,lr}
;;;142    				   size_t len)
;;;143    {
000004  4606              MOV      r6,r0
000006  460c              MOV      r4,r1
000008  4615              MOV      r5,r2
;;;144    	if (data)
00000a  b144              CBZ      r4,|L21.30|
;;;145    		os_memcpy(wpabuf_put(buf, len), data, len);
00000c  4629              MOV      r1,r5
00000e  4630              MOV      r0,r6
000010  f7fffffe          BL       wpabuf_put
000014  4607              MOV      r7,r0
000016  462a              MOV      r2,r5
000018  4621              MOV      r1,r4
00001a  f7fffffe          BL       os_memcpy
                  |L21.30|
;;;146    }
00001e  e8bd81f0          POP      {r4-r8,pc}
;;;147    
                          ENDP


                          AREA ||i.wpabuf_put_le16||, CODE, READONLY, ALIGN=1

                  wpabuf_put_le16 PROC
;;;116    
;;;117    static inline void wpabuf_put_le16(struct wpabuf *buf, u16 data)
000000  b570              PUSH     {r4-r6,lr}
;;;118    {
000002  4606              MOV      r6,r0
000004  460c              MOV      r4,r1
;;;119    	u8 *pos = wpabuf_put(buf, 2);
000006  2102              MOVS     r1,#2
000008  4630              MOV      r0,r6
00000a  f7fffffe          BL       wpabuf_put
00000e  4605              MOV      r5,r0
;;;120    	WPA_PUT_LE16(pos, data);
000010  bf00              NOP      
000012  1220              ASRS     r0,r4,#8
000014  7068              STRB     r0,[r5,#1]
000016  702c              STRB     r4,[r5,#0]
000018  bf00              NOP      
;;;121    }
00001a  bd70              POP      {r4-r6,pc}
;;;122    
                          ENDP


                          AREA ||i.wpabuf_put_str||, CODE, READONLY, ALIGN=1

                  wpabuf_put_str PROC
;;;159    
;;;160    static inline void wpabuf_put_str(struct wpabuf *dst, const char *str)
000000  b570              PUSH     {r4-r6,lr}
;;;161    {
000002  4605              MOV      r5,r0
000004  460c              MOV      r4,r1
;;;162    	wpabuf_put_data(dst, str, os_strlen(str));
000006  4620              MOV      r0,r4
000008  f7fffffe          BL       os_strlen
00000c  4606              MOV      r6,r0
00000e  4602              MOV      r2,r0
000010  4621              MOV      r1,r4
000012  4628              MOV      r0,r5
000014  f7fffffe          BL       wpabuf_put_data
;;;163    }
000018  bd70              POP      {r4-r6,pc}
;;;164    
                          ENDP


                          AREA ||i.wpabuf_put_u8||, CODE, READONLY, ALIGN=1

                  wpabuf_put_u8 PROC
;;;110    
;;;111    static inline void wpabuf_put_u8(struct wpabuf *buf, u8 data)
000000  b570              PUSH     {r4-r6,lr}
;;;112    {
000002  4605              MOV      r5,r0
000004  460c              MOV      r4,r1
;;;113    	u8 *pos = wpabuf_put(buf, 1);
000006  2101              MOVS     r1,#1
000008  4628              MOV      r0,r5
00000a  f7fffffe          BL       wpabuf_put
00000e  4606              MOV      r6,r0
;;;114    	*pos = data;
000010  7034              STRB     r4,[r6,#0]
;;;115    }
000012  bd70              POP      {r4-r6,pc}
;;;116    
                          ENDP


                          AREA ||i.wpabuf_set||, CODE, READONLY, ALIGN=1

                  wpabuf_set PROC
;;;153    
;;;154    static inline void wpabuf_set(struct wpabuf *buf, const void *data, size_t len)
000000  6081              STR      r1,[r0,#8]
;;;155    {
;;;156    	buf->ext_data = (u8 *) data;
;;;157    	buf->size = buf->used = len;
000002  6042              STR      r2,[r0,#4]
000004  6002              STR      r2,[r0,#0]
;;;158    }
000006  4770              BX       lr
;;;159    
                          ENDP


                          AREA ||i.wpabuf_size||, CODE, READONLY, ALIGN=1

                  wpabuf_size PROC
;;;51      */
;;;52     static inline size_t wpabuf_size(const struct wpabuf *buf)
000000  4601              MOV      r1,r0
;;;53     {
;;;54     	return buf->size;
000002  6808              LDR      r0,[r1,#0]
;;;55     }
000004  4770              BX       lr
;;;56     
                          ENDP


                          AREA ||i.wpabuf_tailroom||, CODE, READONLY, ALIGN=1

                  wpabuf_tailroom PROC
;;;71      */
;;;72     static inline size_t wpabuf_tailroom(const struct wpabuf *buf)
000000  4601              MOV      r1,r0
;;;73     {
;;;74     	return buf->size - buf->used;
000002  e9d10200          LDRD     r0,r2,[r1,#0]
000006  1a80              SUBS     r0,r0,r2
;;;75     }
000008  4770              BX       lr
;;;76     
                          ENDP

